Archive member included to satisfy reference by file (symbol)

e:/Apps/devkitPro/portlibs/ppc/lib\libiosuhax.a(iosuhax.o)
                              main.o (IOSUHAX_Open)
e:/Apps/devkitPro/libwiiu/examples/haxchi/installer/libxml2/lib\libxml2.a(parser.o)
                              main.o (xmlReadMemory)
e:/Apps/devkitPro/libwiiu/examples/haxchi/installer/libxml2/lib\libxml2.a(tree.o)
                              e:/Apps/devkitPro/libwiiu/examples/haxchi/installer/libxml2/lib\libxml2.a(parser.o) (xmlBuildQName)
e:/Apps/devkitPro/libwiiu/examples/haxchi/installer/libxml2/lib\libxml2.a(hash.o)
                              e:/Apps/devkitPro/libwiiu/examples/haxchi/installer/libxml2/lib\libxml2.a(parser.o) (xmlHashCreateDict)
e:/Apps/devkitPro/libwiiu/examples/haxchi/installer/libxml2/lib\libxml2.a(xmlIO.o)
                              e:/Apps/devkitPro/libwiiu/examples/haxchi/installer/libxml2/lib\libxml2.a(parser.o) (xmlNop)
e:/Apps/devkitPro/libwiiu/examples/haxchi/installer/libxml2/lib\libxml2.a(xmlmemory.o)
                              e:/Apps/devkitPro/libwiiu/examples/haxchi/installer/libxml2/lib\libxml2.a(parser.o) (xmlInitMemory)
e:/Apps/devkitPro/libwiiu/examples/haxchi/installer/libxml2/lib\libxml2.a(uri.o)
                              e:/Apps/devkitPro/libwiiu/examples/haxchi/installer/libxml2/lib\libxml2.a(parser.o) (xmlFreeURI)
e:/Apps/devkitPro/libwiiu/examples/haxchi/installer/libxml2/lib\libxml2.a(valid.o)
                              e:/Apps/devkitPro/libwiiu/examples/haxchi/installer/libxml2/lib\libxml2.a(parser.o) (xmlNewDocElementContent)
e:/Apps/devkitPro/libwiiu/examples/haxchi/installer/libxml2/lib\libxml2.a(globals.o)
                              e:/Apps/devkitPro/libwiiu/examples/haxchi/installer/libxml2/lib\libxml2.a(parser.o) (xmlInitGlobals)
e:/Apps/devkitPro/libwiiu/examples/haxchi/installer/libxml2/lib\libxml2.a(threads.o)
                              e:/Apps/devkitPro/libwiiu/examples/haxchi/installer/libxml2/lib\libxml2.a(xmlmemory.o) (xmlNewMutex)
e:/Apps/devkitPro/libwiiu/examples/haxchi/installer/libxml2/lib\libxml2.a(xmlstring.o)
                              e:/Apps/devkitPro/libwiiu/examples/haxchi/installer/libxml2/lib\libxml2.a(parser.o) (xmlStrndup)
e:/Apps/devkitPro/libwiiu/examples/haxchi/installer/libxml2/lib\libxml2.a(buf.o)
                              e:/Apps/devkitPro/libwiiu/examples/haxchi/installer/libxml2/lib\libxml2.a(tree.o) (xmlBufCreate)
e:/Apps/devkitPro/libwiiu/examples/haxchi/installer/libxml2/lib\libxml2.a(dict.o)
                              e:/Apps/devkitPro/libwiiu/examples/haxchi/installer/libxml2/lib\libxml2.a(parser.o) (xmlInitializeDict)
e:/Apps/devkitPro/libwiiu/examples/haxchi/installer/libxml2/lib\libxml2.a(SAX2.o)
                              e:/Apps/devkitPro/libwiiu/examples/haxchi/installer/libxml2/lib\libxml2.a(parser.o) (xmlSAX2EntityDecl)
e:/Apps/devkitPro/libwiiu/examples/haxchi/installer/libxml2/lib\libxml2.a(chvalid.o)
                              e:/Apps/devkitPro/libwiiu/examples/haxchi/installer/libxml2/lib\libxml2.a(parser.o) (xmlCharInRange)
e:/Apps/devkitPro/libwiiu/examples/haxchi/installer/libxml2/lib\libxml2.a(xmlsave.o)
                              main.o (xmlDocDumpFormatMemoryEnc)
e:/Apps/devkitPro/libwiiu/examples/haxchi/installer/libxml2/lib\libxml2.a(entities.o)
                              e:/Apps/devkitPro/libwiiu/examples/haxchi/installer/libxml2/lib\libxml2.a(parser.o) (xmlGetPredefinedEntity)
e:/Apps/devkitPro/libwiiu/examples/haxchi/installer/libxml2/lib\libxml2.a(encoding.o)
                              e:/Apps/devkitPro/libwiiu/examples/haxchi/installer/libxml2/lib\libxml2.a(parser.o) (xmlDetectCharEncoding)
e:/Apps/devkitPro/libwiiu/examples/haxchi/installer/libxml2/lib\libxml2.a(error.o)
                              e:/Apps/devkitPro/libwiiu/examples/haxchi/installer/libxml2/lib\libxml2.a(parser.o) (xmlGenericErrorDefaultFunc)
e:/Apps/devkitPro/libwiiu/examples/haxchi/installer/libxml2/lib\libxml2.a(parserInternals.o)
                              e:/Apps/devkitPro/libwiiu/examples/haxchi/installer/libxml2/lib\libxml2.a(parser.o) (xmlErrMemory)
e:/Apps/devkitPro/libwiiu/examples/haxchi/installer/libxml2/lib\libxml2.a(list.o)
                              e:/Apps/devkitPro/libwiiu/examples/haxchi/installer/libxml2/lib\libxml2.a(valid.o) (xmlListCreate)
e:/apps/devkitpro/devkitppc/bin/../lib/gcc/powerpc-eabi/6.2.0/../../../../powerpc-eabi/lib\libsysbase.a(chdir.o)
                              e:/Apps/devkitPro/libwiiu/examples/haxchi/installer/libxml2/lib\libxml2.a(xmlIO.o) (getcwd)
e:/apps/devkitpro/devkitppc/bin/../lib/gcc/powerpc-eabi/6.2.0/../../../../powerpc-eabi/lib\libsysbase.a(iosupport.o)
                              e:/apps/devkitpro/devkitppc/bin/../lib/gcc/powerpc-eabi/6.2.0/../../../../powerpc-eabi/lib\libsysbase.a(chdir.o) (setDefaultDevice)
e:/apps/devkitpro/devkitppc/bin/../lib/gcc/powerpc-eabi/6.2.0/../../../../powerpc-eabi/lib\libc.a(lib_a-ctype_.o)
                              e:/Apps/devkitPro/libwiiu/examples/haxchi/installer/libxml2/lib\libxml2.a(encoding.o) (__ctype_ptr__)
e:/apps/devkitpro/devkitppc/bin/../lib/gcc/powerpc-eabi/6.2.0/../../../../powerpc-eabi/lib\libc.a(lib_a-errno.o)
                              e:/Apps/devkitPro/libwiiu/examples/haxchi/installer/libxml2/lib\libxml2.a(xmlIO.o) (__errno)
e:/apps/devkitpro/devkitppc/bin/../lib/gcc/powerpc-eabi/6.2.0/../../../../powerpc-eabi/lib\libc.a(lib_a-fclose.o)
                              e:/Apps/devkitPro/libwiiu/examples/haxchi/installer/libxml2/lib\libxml2.a(xmlIO.o) (fclose)
e:/apps/devkitpro/devkitppc/bin/../lib/gcc/powerpc-eabi/6.2.0/../../../../powerpc-eabi/lib\libc.a(lib_a-fflush.o)
                              e:/apps/devkitpro/devkitppc/bin/../lib/gcc/powerpc-eabi/6.2.0/../../../../powerpc-eabi/lib\libc.a(lib_a-fclose.o) (_fflush_r)
e:/apps/devkitpro/devkitppc/bin/../lib/gcc/powerpc-eabi/6.2.0/../../../../powerpc-eabi/lib\libc.a(lib_a-findfp.o)
                              e:/apps/devkitpro/devkitppc/bin/../lib/gcc/powerpc-eabi/6.2.0/../../../../powerpc-eabi/lib\libc.a(lib_a-fclose.o) (__sfp_lock_acquire)
e:/apps/devkitpro/devkitppc/bin/../lib/gcc/powerpc-eabi/6.2.0/../../../../powerpc-eabi/lib\libc.a(lib_a-fopen.o)
                              e:/Apps/devkitPro/libwiiu/examples/haxchi/installer/libxml2/lib\libxml2.a(xmlIO.o) (fopen)
e:/apps/devkitpro/devkitppc/bin/../lib/gcc/powerpc-eabi/6.2.0/../../../../powerpc-eabi/lib\libc.a(lib_a-fprintf.o)
                              e:/Apps/devkitPro/libwiiu/examples/haxchi/installer/libxml2/lib\libxml2.a(xmlmemory.o) (fprintf)
e:/apps/devkitpro/devkitppc/bin/../lib/gcc/powerpc-eabi/6.2.0/../../../../powerpc-eabi/lib\libc.a(lib_a-fputs.o)
                              e:/Apps/devkitPro/libwiiu/examples/haxchi/installer/libxml2/lib\libxml2.a(uri.o) (fputs)
e:/apps/devkitpro/devkitppc/bin/../lib/gcc/powerpc-eabi/6.2.0/../../../../powerpc-eabi/lib\libc.a(lib_a-fread.o)
                              e:/Apps/devkitPro/libwiiu/examples/haxchi/installer/libxml2/lib\libxml2.a(xmlIO.o) (fread)
e:/apps/devkitpro/devkitppc/bin/../lib/gcc/powerpc-eabi/6.2.0/../../../../powerpc-eabi/lib\libc.a(lib_a-fseek.o)
                              e:/apps/devkitpro/devkitppc/bin/../lib/gcc/powerpc-eabi/6.2.0/../../../../powerpc-eabi/lib\libc.a(lib_a-fopen.o) (_fseek_r)
e:/apps/devkitpro/devkitppc/bin/../lib/gcc/powerpc-eabi/6.2.0/../../../../powerpc-eabi/lib\libc.a(lib_a-fseeko.o)
                              e:/apps/devkitpro/devkitppc/bin/../lib/gcc/powerpc-eabi/6.2.0/../../../../powerpc-eabi/lib\libc.a(lib_a-fseek.o) (_fseeko_r)
e:/apps/devkitpro/devkitppc/bin/../lib/gcc/powerpc-eabi/6.2.0/../../../../powerpc-eabi/lib\libc.a(lib_a-fvwrite.o)
                              e:/apps/devkitpro/devkitppc/bin/../lib/gcc/powerpc-eabi/6.2.0/../../../../powerpc-eabi/lib\libc.a(lib_a-fputs.o) (__sfvwrite_r)
e:/apps/devkitpro/devkitppc/bin/../lib/gcc/powerpc-eabi/6.2.0/../../../../powerpc-eabi/lib\libc.a(lib_a-fwalk.o)
                              e:/apps/devkitpro/devkitppc/bin/../lib/gcc/powerpc-eabi/6.2.0/../../../../powerpc-eabi/lib\libc.a(lib_a-findfp.o) (_fwalk)
e:/apps/devkitpro/devkitppc/bin/../lib/gcc/powerpc-eabi/6.2.0/../../../../powerpc-eabi/lib\libc.a(lib_a-fwrite.o)
                              e:/Apps/devkitPro/libwiiu/examples/haxchi/installer/libxml2/lib\libxml2.a(tree.o) (fwrite)
e:/apps/devkitpro/devkitppc/bin/../lib/gcc/powerpc-eabi/6.2.0/../../../../powerpc-eabi/lib\libc.a(lib_a-getenv.o)
                              e:/Apps/devkitPro/libwiiu/examples/haxchi/installer/libxml2/lib\libxml2.a(xmlmemory.o) (getenv)
e:/apps/devkitpro/devkitppc/bin/../lib/gcc/powerpc-eabi/6.2.0/../../../../powerpc-eabi/lib\libc.a(lib_a-getenv_r.o)
                              e:/apps/devkitpro/devkitppc/bin/../lib/gcc/powerpc-eabi/6.2.0/../../../../powerpc-eabi/lib\libc.a(lib_a-getenv.o) (_findenv_r)
e:/apps/devkitpro/devkitppc/bin/../lib/gcc/powerpc-eabi/6.2.0/../../../../powerpc-eabi/lib\libc.a(lib_a-impure.o)
                              e:/apps/devkitpro/devkitppc/bin/../lib/gcc/powerpc-eabi/6.2.0/../../../../powerpc-eabi/lib\libc.a(lib_a-fflush.o) (_global_impure_ptr)
e:/apps/devkitpro/devkitppc/bin/../lib/gcc/powerpc-eabi/6.2.0/../../../../powerpc-eabi/lib\libc.a(lib_a-makebuf.o)
                              e:/apps/devkitpro/devkitppc/bin/../lib/gcc/powerpc-eabi/6.2.0/../../../../powerpc-eabi/lib\libc.a(lib_a-fseeko.o) (__smakebuf_r)
e:/apps/devkitpro/devkitppc/bin/../lib/gcc/powerpc-eabi/6.2.0/../../../../powerpc-eabi/lib\libc.a(lib_a-memchr.o)
                              e:/apps/devkitpro/devkitppc/bin/../lib/gcc/powerpc-eabi/6.2.0/../../../../powerpc-eabi/lib\libc.a(lib_a-fvwrite.o) (memchr)
e:/apps/devkitpro/devkitppc/bin/../lib/gcc/powerpc-eabi/6.2.0/../../../../powerpc-eabi/lib\libc.a(lib_a-memcmp.o)
                              main.o (memcmp)
e:/apps/devkitpro/devkitppc/bin/../lib/gcc/powerpc-eabi/6.2.0/../../../../powerpc-eabi/lib\libc.a(lib_a-memcpy.o)
                              exploit.o (memcpy)
e:/apps/devkitpro/devkitppc/bin/../lib/gcc/powerpc-eabi/6.2.0/../../../../powerpc-eabi/lib\libc.a(lib_a-memmove.o)
                              e:/Apps/devkitPro/libwiiu/examples/haxchi/installer/libxml2/lib\libxml2.a(parser.o) (memmove)
e:/apps/devkitpro/devkitppc/bin/../lib/gcc/powerpc-eabi/6.2.0/../../../../powerpc-eabi/lib\libc.a(lib_a-memset.o)
                              exploit.o (memset)
e:/apps/devkitpro/devkitppc/bin/../lib/gcc/powerpc-eabi/6.2.0/../../../../powerpc-eabi/lib\libc.a(lib_a-qsort.o)
                              main.o (qsort)
e:/apps/devkitpro/devkitppc/bin/../lib/gcc/powerpc-eabi/6.2.0/../../../../powerpc-eabi/lib\libc.a(lib_a-rand_r.o)
                              e:/Apps/devkitPro/libwiiu/examples/haxchi/installer/libxml2/lib\libxml2.a(dict.o) (rand_r)
e:/apps/devkitpro/devkitppc/bin/../lib/gcc/powerpc-eabi/6.2.0/../../../../powerpc-eabi/lib\libc.a(lib_a-refill.o)
                              e:/apps/devkitpro/devkitppc/bin/../lib/gcc/powerpc-eabi/6.2.0/../../../../powerpc-eabi/lib\libc.a(lib_a-fread.o) (__srefill_r)
e:/apps/devkitpro/devkitppc/bin/../lib/gcc/powerpc-eabi/6.2.0/../../../../powerpc-eabi/lib\libc.a(lib_a-snprintf.o)
                              e:/Apps/devkitPro/libwiiu/examples/haxchi/installer/libxml2/lib\libxml2.a(parser.o) (snprintf)
e:/apps/devkitpro/devkitppc/bin/../lib/gcc/powerpc-eabi/6.2.0/../../../../powerpc-eabi/lib\libc.a(lib_a-sprintf.o)
                              main.o (sprintf)
e:/apps/devkitpro/devkitppc/bin/../lib/gcc/powerpc-eabi/6.2.0/../../../../powerpc-eabi/lib\libc.a(lib_a-sscanf.o)
                              e:/Apps/devkitPro/libwiiu/examples/haxchi/installer/libxml2/lib\libxml2.a(xmlmemory.o) (sscanf)
e:/apps/devkitpro/devkitppc/bin/../lib/gcc/powerpc-eabi/6.2.0/../../../../powerpc-eabi/lib\libc.a(lib_a-stdio.o)
                              e:/apps/devkitpro/devkitppc/bin/../lib/gcc/powerpc-eabi/6.2.0/../../../../powerpc-eabi/lib\libc.a(lib_a-findfp.o) (__sread)
e:/apps/devkitpro/devkitppc/bin/../lib/gcc/powerpc-eabi/6.2.0/../../../../powerpc-eabi/lib\libc.a(lib_a-stpcpy.o)
                              e:/Apps/devkitPro/libwiiu/examples/haxchi/installer/libxml2/lib\libxml2.a(valid.o) (stpcpy)
e:/apps/devkitpro/devkitppc/bin/../lib/gcc/powerpc-eabi/6.2.0/../../../../powerpc-eabi/lib\libc.a(lib_a-strcat.o)
                              e:/Apps/devkitPro/libwiiu/examples/haxchi/installer/libxml2/lib\libxml2.a(valid.o) (strcat)
e:/apps/devkitpro/devkitppc/bin/../lib/gcc/powerpc-eabi/6.2.0/../../../../powerpc-eabi/lib\libc.a(lib_a-strchr.o)
                              e:/Apps/devkitPro/libwiiu/examples/haxchi/installer/libxml2/lib\libxml2.a(entities.o) (strchr)
e:/apps/devkitpro/devkitppc/bin/../lib/gcc/powerpc-eabi/6.2.0/../../../../powerpc-eabi/lib\libc.a(lib_a-strcmp.o)
                              main.o (strcmp)
e:/apps/devkitpro/devkitppc/bin/../lib/gcc/powerpc-eabi/6.2.0/../../../../powerpc-eabi/lib\libc.a(lib_a-strcpy.o)
                              e:/Apps/devkitPro/portlibs/ppc/lib\libiosuhax.a(iosuhax.o) (strcpy)
e:/apps/devkitpro/devkitppc/bin/../lib/gcc/powerpc-eabi/6.2.0/../../../../powerpc-eabi/lib\libc.a(lib_a-strlen.o)
                              e:/Apps/devkitPro/portlibs/ppc/lib\libiosuhax.a(iosuhax.o) (strlen)
e:/apps/devkitpro/devkitppc/bin/../lib/gcc/powerpc-eabi/6.2.0/../../../../powerpc-eabi/lib\libc.a(lib_a-strncmp.o)
                              e:/Apps/devkitPro/libwiiu/examples/haxchi/installer/libxml2/lib\libxml2.a(xmlstring.o) (strncmp)
e:/apps/devkitpro/devkitppc/bin/../lib/gcc/powerpc-eabi/6.2.0/../../../../powerpc-eabi/lib\libc.a(lib_a-strncpy.o)
                              e:/Apps/devkitPro/libwiiu/examples/haxchi/installer/libxml2/lib\libxml2.a(xmlIO.o) (strncpy)
e:/apps/devkitpro/devkitppc/bin/../lib/gcc/powerpc-eabi/6.2.0/../../../../powerpc-eabi/lib\libc.a(lib_a-strnlen.o)
                              e:/apps/devkitpro/devkitppc/bin/../lib/gcc/powerpc-eabi/6.2.0/../../../../powerpc-eabi/lib\libsysbase.a(chdir.o) (strnlen)
e:/apps/devkitpro/devkitppc/bin/../lib/gcc/powerpc-eabi/6.2.0/../../../../powerpc-eabi/lib\libc.a(lib_a-strrchr.o)
                              e:/apps/devkitpro/devkitppc/bin/../lib/gcc/powerpc-eabi/6.2.0/../../../../powerpc-eabi/lib\libsysbase.a(chdir.o) (strrchr)
e:/apps/devkitpro/devkitppc/bin/../lib/gcc/powerpc-eabi/6.2.0/../../../../powerpc-eabi/lib\libc.a(lib_a-svfprintf.o)
                              e:/apps/devkitpro/devkitppc/bin/../lib/gcc/powerpc-eabi/6.2.0/../../../../powerpc-eabi/lib\libc.a(lib_a-snprintf.o) (_svfprintf_r)
e:/apps/devkitpro/devkitppc/bin/../lib/gcc/powerpc-eabi/6.2.0/../../../../powerpc-eabi/lib\libc.a(lib_a-svfscanf.o)
                              e:/apps/devkitpro/devkitppc/bin/../lib/gcc/powerpc-eabi/6.2.0/../../../../powerpc-eabi/lib\libc.a(lib_a-sscanf.o) (__ssvfscanf_r)
e:/apps/devkitpro/devkitppc/bin/../lib/gcc/powerpc-eabi/6.2.0/../../../../powerpc-eabi/lib\libc.a(lib_a-sysclose.o)
                              e:/Apps/devkitPro/libwiiu/examples/haxchi/installer/libxml2/lib\libxml2.a(xmlIO.o) (close)
e:/apps/devkitpro/devkitppc/bin/../lib/gcc/powerpc-eabi/6.2.0/../../../../powerpc-eabi/lib\libc.a(lib_a-sysread.o)
                              e:/Apps/devkitPro/libwiiu/examples/haxchi/installer/libxml2/lib\libxml2.a(xmlIO.o) (read)
e:/apps/devkitpro/devkitppc/bin/../lib/gcc/powerpc-eabi/6.2.0/../../../../powerpc-eabi/lib\libc.a(lib_a-sysstat.o)
                              e:/Apps/devkitPro/libwiiu/examples/haxchi/installer/libxml2/lib\libxml2.a(xmlIO.o) (stat)
e:/apps/devkitpro/devkitppc/bin/../lib/gcc/powerpc-eabi/6.2.0/../../../../powerpc-eabi/lib\libc.a(lib_a-syswrite.o)
                              e:/Apps/devkitPro/libwiiu/examples/haxchi/installer/libxml2/lib\libxml2.a(xmlIO.o) (write)
e:/apps/devkitpro/devkitppc/bin/../lib/gcc/powerpc-eabi/6.2.0/../../../../powerpc-eabi/lib\libc.a(lib_a-time.o)
                              e:/Apps/devkitPro/libwiiu/examples/haxchi/installer/libxml2/lib\libxml2.a(dict.o) (time)
e:/apps/devkitpro/devkitppc/bin/../lib/gcc/powerpc-eabi/6.2.0/../../../../powerpc-eabi/lib\libc.a(lib_a-vfprintf.o)
                              e:/apps/devkitpro/devkitppc/bin/../lib/gcc/powerpc-eabi/6.2.0/../../../../powerpc-eabi/lib\libc.a(lib_a-fprintf.o) (_vfprintf_r)
e:/apps/devkitpro/devkitppc/bin/../lib/gcc/powerpc-eabi/6.2.0/../../../../powerpc-eabi/lib\libc.a(lib_a-vsnprintf.o)
                              e:/Apps/devkitPro/libwiiu/examples/haxchi/installer/libxml2/lib\libxml2.a(xmlstring.o) (vsnprintf)
e:/apps/devkitpro/devkitppc/bin/../lib/gcc/powerpc-eabi/6.2.0/../../../../powerpc-eabi/lib\libc.a(lib_a-wcrtomb.o)
                              e:/apps/devkitpro/devkitppc/bin/../lib/gcc/powerpc-eabi/6.2.0/../../../../powerpc-eabi/lib\libc.a(lib_a-svfprintf.o) (_wcrtomb_r)
e:/apps/devkitpro/devkitppc/bin/../lib/gcc/powerpc-eabi/6.2.0/../../../../powerpc-eabi/lib\libc.a(lib_a-wcsrtombs.o)
                              e:/apps/devkitpro/devkitppc/bin/../lib/gcc/powerpc-eabi/6.2.0/../../../../powerpc-eabi/lib\libc.a(lib_a-svfprintf.o) (_wcsrtombs_r)
e:/apps/devkitpro/devkitppc/bin/../lib/gcc/powerpc-eabi/6.2.0/../../../../powerpc-eabi/lib\libc.a(lib_a-wctomb_r.o)
                              e:/apps/devkitpro/devkitppc/bin/../lib/gcc/powerpc-eabi/6.2.0/../../../../powerpc-eabi/lib\libc.a(lib_a-wcrtomb.o) (__wctomb)
e:/apps/devkitpro/devkitppc/bin/../lib/gcc/powerpc-eabi/6.2.0/../../../../powerpc-eabi/lib\libc.a(lib_a-wsetup.o)
                              e:/apps/devkitpro/devkitppc/bin/../lib/gcc/powerpc-eabi/6.2.0/../../../../powerpc-eabi/lib\libc.a(lib_a-fvwrite.o) (__swsetup_r)
e:/apps/devkitpro/devkitppc/bin/../lib/gcc/powerpc-eabi/6.2.0/../../../../powerpc-eabi/lib\libc.a(lib_a-dtoa.o)
                              e:/apps/devkitpro/devkitppc/bin/../lib/gcc/powerpc-eabi/6.2.0/../../../../powerpc-eabi/lib\libc.a(lib_a-svfprintf.o) (_dtoa_r)
e:/apps/devkitpro/devkitppc/bin/../lib/gcc/powerpc-eabi/6.2.0/../../../../powerpc-eabi/lib\libc.a(lib_a-environ.o)
                              e:/apps/devkitpro/devkitppc/bin/../lib/gcc/powerpc-eabi/6.2.0/../../../../powerpc-eabi/lib\libc.a(lib_a-getenv_r.o) (environ)
e:/apps/devkitpro/devkitppc/bin/../lib/gcc/powerpc-eabi/6.2.0/../../../../powerpc-eabi/lib\libc.a(lib_a-envlock.o)
                              e:/apps/devkitpro/devkitppc/bin/../lib/gcc/powerpc-eabi/6.2.0/../../../../powerpc-eabi/lib\libc.a(lib_a-getenv_r.o) (__env_lock)
e:/apps/devkitpro/devkitppc/bin/../lib/gcc/powerpc-eabi/6.2.0/../../../../powerpc-eabi/lib\libc.a(lib_a-flags.o)
                              e:/apps/devkitpro/devkitppc/bin/../lib/gcc/powerpc-eabi/6.2.0/../../../../powerpc-eabi/lib\libc.a(lib_a-fopen.o) (__sflags)
e:/apps/devkitpro/devkitppc/bin/../lib/gcc/powerpc-eabi/6.2.0/../../../../powerpc-eabi/lib\libc.a(lib_a-iswspace.o)
                              e:/apps/devkitpro/devkitppc/bin/../lib/gcc/powerpc-eabi/6.2.0/../../../../powerpc-eabi/lib\libc.a(lib_a-svfscanf.o) (iswspace)
e:/apps/devkitpro/devkitppc/bin/../lib/gcc/powerpc-eabi/6.2.0/../../../../powerpc-eabi/lib\libc.a(lib_a-jp2uc.o)
                              e:/apps/devkitpro/devkitppc/bin/../lib/gcc/powerpc-eabi/6.2.0/../../../../powerpc-eabi/lib\libc.a(lib_a-iswspace.o) (_jp2uc)
e:/apps/devkitpro/devkitppc/bin/../lib/gcc/powerpc-eabi/6.2.0/../../../../powerpc-eabi/lib\libc.a(lib_a-locale.o)
                              e:/apps/devkitpro/devkitppc/bin/../lib/gcc/powerpc-eabi/6.2.0/../../../../powerpc-eabi/lib\libc.a(lib_a-svfprintf.o) (__locale_charset)
e:/apps/devkitpro/devkitppc/bin/../lib/gcc/powerpc-eabi/6.2.0/../../../../powerpc-eabi/lib\libc.a(lib_a-mbrtowc.o)
                              e:/apps/devkitpro/devkitppc/bin/../lib/gcc/powerpc-eabi/6.2.0/../../../../powerpc-eabi/lib\libc.a(lib_a-svfscanf.o) (_mbrtowc_r)
e:/apps/devkitpro/devkitppc/bin/../lib/gcc/powerpc-eabi/6.2.0/../../../../powerpc-eabi/lib\libc.a(lib_a-mbtowc_r.o)
                              e:/apps/devkitpro/devkitppc/bin/../lib/gcc/powerpc-eabi/6.2.0/../../../../powerpc-eabi/lib\libc.a(lib_a-locale.o) (__utf8_mbtowc)
e:/apps/devkitpro/devkitppc/bin/../lib/gcc/powerpc-eabi/6.2.0/../../../../powerpc-eabi/lib\libc.a(lib_a-mprec.o)
                              e:/apps/devkitpro/devkitppc/bin/../lib/gcc/powerpc-eabi/6.2.0/../../../../powerpc-eabi/lib\libc.a(lib_a-dtoa.o) (_Balloc)
e:/apps/devkitpro/devkitppc/bin/../lib/gcc/powerpc-eabi/6.2.0/../../../../powerpc-eabi/lib\libc.a(lib_a-sccl.o)
                              e:/apps/devkitpro/devkitppc/bin/../lib/gcc/powerpc-eabi/6.2.0/../../../../powerpc-eabi/lib\libc.a(lib_a-svfscanf.o) (__sccl)
e:/apps/devkitpro/devkitppc/bin/../lib/gcc/powerpc-eabi/6.2.0/../../../../powerpc-eabi/lib\libc.a(lib_a-sf_nan.o)
                              e:/apps/devkitpro/devkitppc/bin/../lib/gcc/powerpc-eabi/6.2.0/../../../../powerpc-eabi/lib\libc.a(lib_a-svfscanf.o) (nanf)
e:/apps/devkitpro/devkitppc/bin/../lib/gcc/powerpc-eabi/6.2.0/../../../../powerpc-eabi/lib\libc.a(lib_a-s_fpclassify.o)
                              e:/apps/devkitpro/devkitppc/bin/../lib/gcc/powerpc-eabi/6.2.0/../../../../powerpc-eabi/lib\libc.a(lib_a-svfprintf.o) (__fpclassifyd)
e:/apps/devkitpro/devkitppc/bin/../lib/gcc/powerpc-eabi/6.2.0/../../../../powerpc-eabi/lib\libc.a(lib_a-strcasecmp.o)
                              e:/apps/devkitpro/devkitppc/bin/../lib/gcc/powerpc-eabi/6.2.0/../../../../powerpc-eabi/lib\libc.a(lib_a-locale.o) (strcasecmp)
e:/apps/devkitpro/devkitppc/bin/../lib/gcc/powerpc-eabi/6.2.0/../../../../powerpc-eabi/lib\libc.a(lib_a-strlcpy.o)
                              e:/apps/devkitpro/devkitppc/bin/../lib/gcc/powerpc-eabi/6.2.0/../../../../powerpc-eabi/lib\libc.a(lib_a-locale.o) (strlcpy)
e:/apps/devkitpro/devkitppc/bin/../lib/gcc/powerpc-eabi/6.2.0/../../../../powerpc-eabi/lib\libc.a(lib_a-strncasecmp.o)
                              e:/apps/devkitpro/devkitppc/bin/../lib/gcc/powerpc-eabi/6.2.0/../../../../powerpc-eabi/lib\libc.a(lib_a-locale.o) (strncasecmp)
e:/apps/devkitpro/devkitppc/bin/../lib/gcc/powerpc-eabi/6.2.0/../../../../powerpc-eabi/lib\libc.a(lib_a-strtod.o)
                              e:/apps/devkitpro/devkitppc/bin/../lib/gcc/powerpc-eabi/6.2.0/../../../../powerpc-eabi/lib\libc.a(lib_a-svfscanf.o) (_strtod_r)
e:/apps/devkitpro/devkitppc/bin/../lib/gcc/powerpc-eabi/6.2.0/../../../../powerpc-eabi/lib\libc.a(lib_a-strtoll_r.o)
                              e:/apps/devkitpro/devkitppc/bin/../lib/gcc/powerpc-eabi/6.2.0/../../../../powerpc-eabi/lib\libc.a(lib_a-svfscanf.o) (_strtoll_r)
e:/apps/devkitpro/devkitppc/bin/../lib/gcc/powerpc-eabi/6.2.0/../../../../powerpc-eabi/lib\libc.a(lib_a-strtol.o)
                              e:/apps/devkitpro/devkitppc/bin/../lib/gcc/powerpc-eabi/6.2.0/../../../../powerpc-eabi/lib\libc.a(lib_a-svfscanf.o) (_strtol_r)
e:/apps/devkitpro/devkitppc/bin/../lib/gcc/powerpc-eabi/6.2.0/../../../../powerpc-eabi/lib\libc.a(lib_a-strtoull_r.o)
                              e:/apps/devkitpro/devkitppc/bin/../lib/gcc/powerpc-eabi/6.2.0/../../../../powerpc-eabi/lib\libc.a(lib_a-svfscanf.o) (_strtoull_r)
e:/apps/devkitpro/devkitppc/bin/../lib/gcc/powerpc-eabi/6.2.0/../../../../powerpc-eabi/lib\libc.a(lib_a-strtoul.o)
                              e:/apps/devkitpro/devkitppc/bin/../lib/gcc/powerpc-eabi/6.2.0/../../../../powerpc-eabi/lib\libc.a(lib_a-svfscanf.o) (_strtoul_r)
e:/apps/devkitpro/devkitppc/bin/../lib/gcc/powerpc-eabi/6.2.0/../../../../powerpc-eabi/lib\libc.a(lib_a-svfiprintf.o)
                              e:/apps/devkitpro/devkitppc/bin/../lib/gcc/powerpc-eabi/6.2.0/../../../../powerpc-eabi/lib\libc.a(lib_a-svfprintf.o) (__ssprint_r)
e:/apps/devkitpro/devkitppc/bin/../lib/gcc/powerpc-eabi/6.2.0/../../../../powerpc-eabi/lib\libc.a(lib_a-svfiscanf.o)
                              e:/apps/devkitpro/devkitppc/bin/../lib/gcc/powerpc-eabi/6.2.0/../../../../powerpc-eabi/lib\libc.a(lib_a-svfscanf.o) (_sungetc_r)
e:/apps/devkitpro/devkitppc/bin/../lib/gcc/powerpc-eabi/6.2.0/../../../../powerpc-eabi/lib\libc.a(lib_a-ungetc.o)
                              e:/apps/devkitpro/devkitppc/bin/../lib/gcc/powerpc-eabi/6.2.0/../../../../powerpc-eabi/lib\libc.a(lib_a-svfiscanf.o) (__submore)
e:/apps/devkitpro/devkitppc/bin/../lib/gcc/powerpc-eabi/6.2.0/../../../../powerpc-eabi/lib\libc.a(lib_a-vfiprintf.o)
                              e:/apps/devkitpro/devkitppc/bin/../lib/gcc/powerpc-eabi/6.2.0/../../../../powerpc-eabi/lib\libc.a(lib_a-vfprintf.o) (__sprint_r)
e:/apps/devkitpro/devkitppc/bin/../lib/gcc/powerpc-eabi/6.2.0/../../../../powerpc-eabi/lib\libc.a(lib_a-wcsnrtombs.o)
                              e:/apps/devkitpro/devkitppc/bin/../lib/gcc/powerpc-eabi/6.2.0/../../../../powerpc-eabi/lib\libc.a(lib_a-wcsrtombs.o) (_wcsnrtombs_r)
e:/apps/devkitpro/devkitppc/bin/../lib/gcc/powerpc-eabi/6.2.0/../../../../powerpc-eabi/lib\libc.a(lib_a-fputwc.o)
                              e:/apps/devkitpro/devkitppc/bin/../lib/gcc/powerpc-eabi/6.2.0/../../../../powerpc-eabi/lib\libc.a(lib_a-vfiprintf.o) (_fputwc_r)
e:/apps/devkitpro/devkitppc/bin/../lib/gcc/powerpc-eabi/6.2.0/../../../../powerpc-eabi/lib\libc.a(lib_a-gdtoa-gethex.o)
                              e:/apps/devkitpro/devkitppc/bin/../lib/gcc/powerpc-eabi/6.2.0/../../../../powerpc-eabi/lib\libc.a(lib_a-strtod.o) (__gethex)
e:/apps/devkitpro/devkitppc/bin/../lib/gcc/powerpc-eabi/6.2.0/../../../../powerpc-eabi/lib\libc.a(lib_a-gdtoa-hexnan.o)
                              e:/apps/devkitpro/devkitppc/bin/../lib/gcc/powerpc-eabi/6.2.0/../../../../powerpc-eabi/lib\libc.a(lib_a-strtod.o) (__hexnan)
e:/apps/devkitpro/devkitppc/bin/../lib/gcc/powerpc-eabi/6.2.0/../../../../powerpc-eabi/lib\libc.a(lib_a-wbuf.o)
                              e:/apps/devkitpro/devkitppc/bin/../lib/gcc/powerpc-eabi/6.2.0/../../../../powerpc-eabi/lib\libc.a(lib_a-fputwc.o) (__swbuf_r)
e:/apps/devkitpro/devkitppc/bin/../lib/gcc/powerpc-eabi/6.2.0/../../../../powerpc-eabi/lib\libsysbase.a(close.o)
                              e:/apps/devkitpro/devkitppc/bin/../lib/gcc/powerpc-eabi/6.2.0/../../../../powerpc-eabi/lib\libc.a(lib_a-stdio.o) (_close_r)
e:/apps/devkitpro/devkitppc/bin/../lib/gcc/powerpc-eabi/6.2.0/../../../../powerpc-eabi/lib\libsysbase.a(fstat.o)
                              e:/apps/devkitpro/devkitppc/bin/../lib/gcc/powerpc-eabi/6.2.0/../../../../powerpc-eabi/lib\libc.a(lib_a-fseeko.o) (_fstat_r)
e:/apps/devkitpro/devkitppc/bin/../lib/gcc/powerpc-eabi/6.2.0/../../../../powerpc-eabi/lib\libsysbase.a(gettod.o)
                              e:/apps/devkitpro/devkitppc/bin/../lib/gcc/powerpc-eabi/6.2.0/../../../../powerpc-eabi/lib\libc.a(lib_a-time.o) (_gettimeofday_r)
e:/apps/devkitpro/devkitppc/bin/../lib/gcc/powerpc-eabi/6.2.0/../../../../powerpc-eabi/lib\libsysbase.a(isatty.o)
                              e:/apps/devkitpro/devkitppc/bin/../lib/gcc/powerpc-eabi/6.2.0/../../../../powerpc-eabi/lib\libc.a(lib_a-makebuf.o) (_isatty_r)
e:/apps/devkitpro/devkitppc/bin/../lib/gcc/powerpc-eabi/6.2.0/../../../../powerpc-eabi/lib\libsysbase.a(lseek.o)
                              e:/apps/devkitpro/devkitppc/bin/../lib/gcc/powerpc-eabi/6.2.0/../../../../powerpc-eabi/lib\libc.a(lib_a-stdio.o) (_lseek_r)
e:/apps/devkitpro/devkitppc/bin/../lib/gcc/powerpc-eabi/6.2.0/../../../../powerpc-eabi/lib\libsysbase.a(open.o)
                              e:/apps/devkitpro/devkitppc/bin/../lib/gcc/powerpc-eabi/6.2.0/../../../../powerpc-eabi/lib\libc.a(lib_a-fopen.o) (_open_r)
e:/apps/devkitpro/devkitppc/bin/../lib/gcc/powerpc-eabi/6.2.0/../../../../powerpc-eabi/lib\libsysbase.a(read.o)
                              e:/apps/devkitpro/devkitppc/bin/../lib/gcc/powerpc-eabi/6.2.0/../../../../powerpc-eabi/lib\libc.a(lib_a-stdio.o) (_read_r)
e:/apps/devkitpro/devkitppc/bin/../lib/gcc/powerpc-eabi/6.2.0/../../../../powerpc-eabi/lib\libsysbase.a(stat.o)
                              e:/apps/devkitpro/devkitppc/bin/../lib/gcc/powerpc-eabi/6.2.0/../../../../powerpc-eabi/lib\libc.a(lib_a-sysstat.o) (_stat_r)
e:/apps/devkitpro/devkitppc/bin/../lib/gcc/powerpc-eabi/6.2.0/../../../../powerpc-eabi/lib\libsysbase.a(write.o)
                              e:/apps/devkitpro/devkitppc/bin/../lib/gcc/powerpc-eabi/6.2.0/../../../../powerpc-eabi/lib\libc.a(lib_a-stdio.o) (_write_r)
e:/apps/devkitpro/devkitppc/bin/../lib/gcc/powerpc-eabi/6.2.0/../../../../powerpc-eabi/lib\libsysbase.a(flock.o)
                              e:/apps/devkitpro/devkitppc/bin/../lib/gcc/powerpc-eabi/6.2.0/../../../../powerpc-eabi/lib\libc.a(lib_a-fclose.o) (__flockfile)
e:/apps/devkitpro/devkitppc/bin/../lib/gcc/powerpc-eabi/6.2.0/../../../../powerpc-eabi/lib\libsysbase.a(syscall_support.o)
                              e:/apps/devkitpro/devkitppc/bin/../lib/gcc/powerpc-eabi/6.2.0/../../../../powerpc-eabi/lib\libc.a(lib_a-findfp.o) (__libc_lock_init)
e:/apps/devkitpro/devkitppc/bin/../lib/gcc/powerpc-eabi/6.2.0/../../../../powerpc-eabi/lib\libsysbase.a(handle_manager.o)
                              e:/apps/devkitpro/devkitppc/bin/../lib/gcc/powerpc-eabi/6.2.0/../../../../powerpc-eabi/lib\libsysbase.a(close.o) (__release_handle)
e:/apps/devkitpro/devkitppc/bin/../lib/gcc/powerpc-eabi/6.2.0\libgcc.a(_udivdi3.o)
                              e:/apps/devkitpro/devkitppc/bin/../lib/gcc/powerpc-eabi/6.2.0/../../../../powerpc-eabi/lib\libc.a(lib_a-svfprintf.o) (__udivdi3)
e:/apps/devkitpro/devkitppc/bin/../lib/gcc/powerpc-eabi/6.2.0\libgcc.a(_umoddi3.o)
                              e:/apps/devkitpro/devkitppc/bin/../lib/gcc/powerpc-eabi/6.2.0/../../../../powerpc-eabi/lib\libc.a(lib_a-svfprintf.o) (__umoddi3)

Allocating common symbols
Common symbol       size              file

__hexdig            0x100             e:/apps/devkitpro/devkitppc/bin/../lib/gcc/powerpc-eabi/6.2.0/../../../../powerpc-eabi/lib\libc.a(lib_a-gdtoa-gethex.o)
xmlLastError        0x34              e:/Apps/devkitPro/libwiiu/examples/haxchi/installer/libxml2/lib\libxml2.a(globals.o)

Discarded input sections

 .text          0x00000000        0x0 entry.o
 .data          0x00000000        0x0 entry.o
 .bss           0x00000000        0x0 entry.o
 .comment       0x00000000       0x23 entry.o
 .text          0x00000000        0x0 exploit.o
 .data          0x00000000        0x0 exploit.o
 .bss           0x00000000        0x0 exploit.o
 .text.uhs_write32
                0x00000000       0xa4 exploit.o
 .comment       0x00000000       0x23 exploit.o
 .text          0x00000000        0x0 main.o
 .data          0x00000000        0x0 main.o
 .bss           0x00000000        0x0 main.o
 .text.MCPHookOpen
                0x00000000       0xa0 main.o
 .text.MCPHookClose
                0x00000000       0x70 main.o
 .text.println_noflip
                0x00000000       0x74 main.o
 .text.fsa_read
                0x00000000       0xc0 main.o
 .text.printhdr_noflip
                0x00000000       0xac main.o
 .comment       0x00000000       0x23 main.o
 .text          0x00000000        0x0 acp_functions.o
 .data          0x00000000        0x8 acp_functions.o
 .bss           0x00000000        0x0 acp_functions.o
 .text.InitAcquireACP
                0x00000000       0x20 acp_functions.o
 .text.InitACPFunctionPointers
                0x00000000       0x70 acp_functions.o
 .rodata.InitACPFunctionPointers.str1.4
                0x00000000       0x26 acp_functions.o
 .rodata.InitAcquireACP.str1.4
                0x00000000        0xb acp_functions.o
 .comment       0x00000000       0x23 acp_functions.o
 .text          0x00000000        0x0 aoc_functions.o
 .data          0x00000000       0x24 aoc_functions.o
 .bss           0x00000000        0x0 aoc_functions.o
 .text.InitAcquireAoc
                0x00000000       0x20 aoc_functions.o
 .text.InitAocFunctionPointers
                0x00000000      0x17c aoc_functions.o
 .rodata.InitAcquireAoc.str1.4
                0x00000000        0xb aoc_functions.o
 .rodata.InitAocFunctionPointers.str1.4
                0x00000000       0x94 aoc_functions.o
 .comment       0x00000000       0x23 aoc_functions.o
 .text          0x00000000        0x0 ax_functions.o
 .data          0x00000000       0x58 ax_functions.o
 .bss           0x00000000        0x0 ax_functions.o
 .text.InitAcquireAX
                0x00000000      0x1c8 ax_functions.o
 .text.InitAXFunctionPointers
                0x00000000      0x640 ax_functions.o
 .text.ProperlyEndTransitionAudio
                0x00000000      0x180 ax_functions.o
 .rodata.InitAXFunctionPointers.str1.4
                0x00000000      0x376 ax_functions.o
 .rodata.InitAcquireAX.str1.4
                0x00000000       0xbc ax_functions.o
 .rodata.ProperlyEndTransitionAudio.str1.4
                0x00000000       0x50 ax_functions.o
 .comment       0x00000000       0x23 ax_functions.o
 .text          0x00000000        0x0 fs_functions.o
 .data          0x00000000       0xa8 fs_functions.o
 .bss           0x00000000        0x0 fs_functions.o
 .text.InitFSFunctionPointers
                0x00000000      0xee0 fs_functions.o
 .rodata.InitFSFunctionPointers.str1.4
                0x00000000      0x79e fs_functions.o
 .comment       0x00000000       0x23 fs_functions.o
 .text          0x00000000        0x0 gx2_functions.o
 .data          0x00000000      0x108 gx2_functions.o
 .bss           0x00000000        0x0 gx2_functions.o
 .text.InitAcquireGX2
                0x00000000       0x20 gx2_functions.o
 .text.InitGX2FunctionPointers
                0x00000000     0x16f0 gx2_functions.o
 .rodata.InitAcquireGX2.str1.4
                0x00000000        0x8 gx2_functions.o
 .rodata.InitGX2FunctionPointers.str1.4
                0x00000000      0xe75 gx2_functions.o
 .comment       0x00000000       0x23 gx2_functions.o
 .text          0x00000000        0x0 os_functions.o
 .bss           0x00000000        0x0 os_functions.o
 .text.InitAcquireOS
                0x00000000       0x34 os_functions.o
 .comment       0x00000000       0x23 os_functions.o
 .text          0x00000000        0x0 padscore_functions.o
 .data          0x00000000       0x28 padscore_functions.o
 .bss           0x00000000        0x0 padscore_functions.o
 .text.InitAcquirePadScore
                0x00000000       0x20 padscore_functions.o
 .text.InitPadScoreFunctionPointers
                0x00000000      0x3a8 padscore_functions.o
 .rodata.InitAcquirePadScore.str1.4
                0x00000000        0xd padscore_functions.o
 .rodata.InitPadScoreFunctionPointers.str1.4
                0x00000000      0x1a0 padscore_functions.o
 .comment       0x00000000       0x23 padscore_functions.o
 .text          0x00000000        0x0 socket_functions.o
 .data          0x00000000       0x48 socket_functions.o
 .bss           0x00000000        0x0 socket_functions.o
 .text.InitAcquireSocket
                0x00000000       0x20 socket_functions.o
 .text.InitSocketFunctionPointers
                0x00000000      0x688 socket_functions.o
 .rodata.InitAcquireSocket.str1.4
                0x00000000        0xc socket_functions.o
 .rodata.InitSocketFunctionPointers.str1.4
                0x00000000      0x292 socket_functions.o
 .sbss.hostIpAddress
                0x00000000        0x4 socket_functions.o
 .comment       0x00000000       0x23 socket_functions.o
 .text          0x00000000        0x0 sys_functions.o
 .bss           0x00000000        0x0 sys_functions.o
 .text.InitAcquireSys
                0x00000000       0x20 sys_functions.o
 .comment       0x00000000       0x23 sys_functions.o
 .text          0x00000000        0x0 syshid_functions.o
 .data          0x00000000       0x38 syshid_functions.o
 .bss           0x00000000        0x0 syshid_functions.o
 .text.InitAcquireSysHID
                0x00000000       0x20 syshid_functions.o
 .text.InitSysHIDFunctionPointers
                0x00000000      0x50c syshid_functions.o
 .rodata.InitAcquireSysHID.str1.4
                0x00000000        0xc syshid_functions.o
 .rodata.InitSysHIDFunctionPointers.str1.4
                0x00000000      0x256 syshid_functions.o
 .comment       0x00000000       0x23 syshid_functions.o
 .text          0x00000000        0x0 vpad_functions.o
 .bss           0x00000000        0x0 vpad_functions.o
 .text.InitAcquireVPad
                0x00000000       0x64 vpad_functions.o
 .comment       0x00000000       0x23 vpad_functions.o
 .text          0x00000000        0x0 memory.o
 .data          0x00000000        0x0 memory.o
 .bss           0x00000000        0x0 memory.o
 .text.__wrap_calloc
                0x00000000       0x60 memory.o
 .text.__wrap_malloc_usable_size
                0x00000000        0xc memory.o
 .text.__wrap__memalign_r
                0x00000000       0x24 memory.o
 .text.__wrap__malloc_usable_size_r
                0x00000000        0xc memory.o
 .text.MEM2_alloc
                0x00000000       0x20 memory.o
 .text.MEM2_free
                0x00000000       0x1c memory.o
 .text.MEM1_alloc
                0x00000000       0x2c memory.o
 .text.MEM1_free
                0x00000000       0x1c memory.o
 .comment       0x00000000       0x23 memory.o
 .text          0x00000000        0x0 animalcrossing.zip.o
 .data          0x00000000        0x0 animalcrossing.zip.o
 .bss           0x00000000        0x0 animalcrossing.zip.o
 .text          0x00000000        0x0 bigbrainacademy.zip.o
 .data          0x00000000        0x0 bigbrainacademy.zip.o
 .bss           0x00000000        0x0 bigbrainacademy.zip.o
 .text          0x00000000        0x0 brainage.zip.o
 .data          0x00000000        0x0 brainage.zip.o
 .bss           0x00000000        0x0 brainage.zip.o
 .text          0x00000000        0x0 dkjclimber.zip.o
 .data          0x00000000        0x0 dkjclimber.zip.o
 .bss           0x00000000        0x0 dkjclimber.zip.o
 .text          0x00000000        0x0 explorersofsky.zip.o
 .data          0x00000000        0x0 explorersofsky.zip.o
 .bss           0x00000000        0x0 explorersofsky.zip.o
 .text          0x00000000        0x0 guardiansigns.zip.o
 .data          0x00000000        0x0 guardiansigns.zip.o
 .bss           0x00000000        0x0 guardiansigns.zip.o
 .text          0x00000000        0x0 kirby.zip.o
 .data          0x00000000        0x0 kirby.zip.o
 .bss           0x00000000        0x0 kirby.zip.o
 .text          0x00000000        0x0 kirbycanvascurse.zip.o
 .data          0x00000000        0x0 kirbycanvascurse.zip.o
 .bss           0x00000000        0x0 kirbycanvascurse.zip.o
 .text          0x00000000        0x0 kirbymassattack.zip.o
 .data          0x00000000        0x0 kirbymassattack.zip.o
 .bss           0x00000000        0x0 kirbymassattack.zip.o
 .text          0x00000000        0x0 mariokartds.zip.o
 .data          0x00000000        0x0 mariokartds.zip.o
 .bss           0x00000000        0x0 mariokartds.zip.o
 .text          0x00000000        0x0 masterofdisguise.zip.o
 .data          0x00000000        0x0 masterofdisguise.zip.o
 .bss           0x00000000        0x0 masterofdisguise.zip.o
 .text          0x00000000        0x0 newsmb.zip.o
 .data          0x00000000        0x0 newsmb.zip.o
 .bss           0x00000000        0x0 newsmb.zip.o
 .text          0x00000000        0x0 newsmb_eur.zip.o
 .data          0x00000000        0x0 newsmb_eur.zip.o
 .bss           0x00000000        0x0 newsmb_eur.zip.o
 .text          0x00000000        0x0 partnersintime.zip.o
 .data          0x00000000        0x0 partnersintime.zip.o
 .bss           0x00000000        0x0 partnersintime.zip.o
 .text          0x00000000        0x0 pokemonranger.zip.o
 .data          0x00000000        0x0 pokemonranger.zip.o
 .bss           0x00000000        0x0 pokemonranger.zip.o
 .text          0x00000000        0x0 sfcommand.zip.o
 .data          0x00000000        0x0 sfcommand.zip.o
 .bss           0x00000000        0x0 sfcommand.zip.o
 .text          0x00000000        0x0 shadowsofalmia.zip.o
 .data          0x00000000        0x0 shadowsofalmia.zip.o
 .bss           0x00000000        0x0 shadowsofalmia.zip.o
 .text          0x00000000        0x0 sm64ds.zip.o
 .data          0x00000000        0x0 sm64ds.zip.o
 .bss           0x00000000        0x0 sm64ds.zip.o
 .text          0x00000000        0x0 wwtouched.zip.o
 .data          0x00000000        0x0 wwtouched.zip.o
 .bss           0x00000000        0x0 wwtouched.zip.o
 .text          0x00000000        0x0 yoshids.zip.o
 .data          0x00000000        0x0 yoshids.zip.o
 .bss           0x00000000        0x0 yoshids.zip.o
 .text          0x00000000        0x0 yoshitouchandgo.zip.o
 .data          0x00000000        0x0 yoshitouchandgo.zip.o
 .bss           0x00000000        0x0 yoshitouchandgo.zip.o
 .text          0x00000000        0x0 zeldaph.zip.o
 .data          0x00000000        0x0 zeldaph.zip.o
 .bss           0x00000000        0x0 zeldaph.zip.o
 .text          0x00000000        0x0 zeldast.zip.o
 .data          0x00000000        0x0 zeldast.zip.o
 .bss           0x00000000        0x0 zeldast.zip.o
 .text          0x00000000        0x0 e:/Apps/devkitPro/portlibs/ppc/lib\libiosuhax.a(iosuhax.o)
 .data          0x00000000        0x0 e:/Apps/devkitPro/portlibs/ppc/lib\libiosuhax.a(iosuhax.o)
 .bss           0x00000000        0x0 e:/Apps/devkitPro/portlibs/ppc/lib\libiosuhax.a(iosuhax.o)
 .text.IOSUHAX_memwrite
                0x00000000       0xd4 e:/Apps/devkitPro/portlibs/ppc/lib\libiosuhax.a(iosuhax.o)
 .text.IOSUHAX_memread
                0x00000000       0x60 e:/Apps/devkitPro/portlibs/ppc/lib\libiosuhax.a(iosuhax.o)
 .text.IOSUHAX_memcpy
                0x00000000       0x68 e:/Apps/devkitPro/portlibs/ppc/lib\libiosuhax.a(iosuhax.o)
 .text.IOSUHAX_SVC
                0x00000000       0xd0 e:/Apps/devkitPro/portlibs/ppc/lib\libiosuhax.a(iosuhax.o)
 .text.IOSUHAX_FSA_GetDeviceInfo
                0x00000000      0x140 e:/Apps/devkitPro/portlibs/ppc/lib\libiosuhax.a(iosuhax.o)
 .text.IOSUHAX_FSA_MakeDir
                0x00000000      0x11c e:/Apps/devkitPro/portlibs/ppc/lib\libiosuhax.a(iosuhax.o)
 .text.IOSUHAX_FSA_OpenDir
                0x00000000      0x120 e:/Apps/devkitPro/portlibs/ppc/lib\libiosuhax.a(iosuhax.o)
 .text.IOSUHAX_FSA_ReadDir
                0x00000000      0x138 e:/Apps/devkitPro/portlibs/ppc/lib\libiosuhax.a(iosuhax.o)
 .text.IOSUHAX_FSA_RewindDir
                0x00000000       0xe0 e:/Apps/devkitPro/portlibs/ppc/lib\libiosuhax.a(iosuhax.o)
 .text.IOSUHAX_FSA_CloseDir
                0x00000000       0xe0 e:/Apps/devkitPro/portlibs/ppc/lib\libiosuhax.a(iosuhax.o)
 .text.IOSUHAX_FSA_ChangeDir
                0x00000000      0x108 e:/Apps/devkitPro/portlibs/ppc/lib\libiosuhax.a(iosuhax.o)
 .text.IOSUHAX_FSA_SetFilePos
                0x00000000       0xf4 e:/Apps/devkitPro/portlibs/ppc/lib\libiosuhax.a(iosuhax.o)
 .text.IOSUHAX_FSA_GetStat
                0x00000000      0x124 e:/Apps/devkitPro/portlibs/ppc/lib\libiosuhax.a(iosuhax.o)
 .text.IOSUHAX_FSA_Remove
                0x00000000      0x108 e:/Apps/devkitPro/portlibs/ppc/lib\libiosuhax.a(iosuhax.o)
 .text.IOSUHAX_FSA_ChangeMode
                0x00000000      0x11c e:/Apps/devkitPro/portlibs/ppc/lib\libiosuhax.a(iosuhax.o)
 .text.IOSUHAX_FSA_RawOpen
                0x00000000      0x104 e:/Apps/devkitPro/portlibs/ppc/lib\libiosuhax.a(iosuhax.o)
 .text.IOSUHAX_FSA_RawRead
                0x00000000      0x1a0 e:/Apps/devkitPro/portlibs/ppc/lib\libiosuhax.a(iosuhax.o)
 .text.IOSUHAX_FSA_RawWrite
                0x00000000      0x174 e:/Apps/devkitPro/portlibs/ppc/lib\libiosuhax.a(iosuhax.o)
 .text.IOSUHAX_FSA_RawClose
                0x00000000       0xe0 e:/Apps/devkitPro/portlibs/ppc/lib\libiosuhax.a(iosuhax.o)
 .comment       0x00000000       0x25 e:/Apps/devkitPro/portlibs/ppc/lib\libiosuhax.a(iosuhax.o)
 .data          0x00000000        0x0 e:/Apps/devkitPro/libwiiu/examples/haxchi/installer/libxml2/lib\libxml2.a(parser.o)
 .debug_info    0x00000000    0x138ea e:/Apps/devkitPro/libwiiu/examples/haxchi/installer/libxml2/lib\libxml2.a(parser.o)
 .debug_abbrev  0x00000000      0x5e9 e:/Apps/devkitPro/libwiiu/examples/haxchi/installer/libxml2/lib\libxml2.a(parser.o)
 .debug_loc     0x00000000    0x125ae e:/Apps/devkitPro/libwiiu/examples/haxchi/installer/libxml2/lib\libxml2.a(parser.o)
 .debug_aranges
                0x00000000       0x28 e:/Apps/devkitPro/libwiiu/examples/haxchi/installer/libxml2/lib\libxml2.a(parser.o)
 .debug_ranges  0x00000000     0x1328 e:/Apps/devkitPro/libwiiu/examples/haxchi/installer/libxml2/lib\libxml2.a(parser.o)
 .debug_line    0x00000000     0x5047 e:/Apps/devkitPro/libwiiu/examples/haxchi/installer/libxml2/lib\libxml2.a(parser.o)
 .debug_str     0x00000000     0x8a06 e:/Apps/devkitPro/libwiiu/examples/haxchi/installer/libxml2/lib\libxml2.a(parser.o)
 .comment       0x00000000       0x23 e:/Apps/devkitPro/libwiiu/examples/haxchi/installer/libxml2/lib\libxml2.a(parser.o)
 .debug_frame   0x00000000     0x1d24 e:/Apps/devkitPro/libwiiu/examples/haxchi/installer/libxml2/lib\libxml2.a(parser.o)
 .data          0x00000000        0x0 e:/Apps/devkitPro/libwiiu/examples/haxchi/installer/libxml2/lib\libxml2.a(tree.o)
 .debug_info    0x00000000     0xb71b e:/Apps/devkitPro/libwiiu/examples/haxchi/installer/libxml2/lib\libxml2.a(tree.o)
 .debug_abbrev  0x00000000      0x640 e:/Apps/devkitPro/libwiiu/examples/haxchi/installer/libxml2/lib\libxml2.a(tree.o)
 .debug_loc     0x00000000     0xa2ae e:/Apps/devkitPro/libwiiu/examples/haxchi/installer/libxml2/lib\libxml2.a(tree.o)
 .debug_aranges
                0x00000000       0x20 e:/Apps/devkitPro/libwiiu/examples/haxchi/installer/libxml2/lib\libxml2.a(tree.o)
 .debug_ranges  0x00000000      0x890 e:/Apps/devkitPro/libwiiu/examples/haxchi/installer/libxml2/lib\libxml2.a(tree.o)
 .debug_line    0x00000000     0x25a1 e:/Apps/devkitPro/libwiiu/examples/haxchi/installer/libxml2/lib\libxml2.a(tree.o)
 .debug_str     0x00000000     0x790f e:/Apps/devkitPro/libwiiu/examples/haxchi/installer/libxml2/lib\libxml2.a(tree.o)
 .comment       0x00000000       0x23 e:/Apps/devkitPro/libwiiu/examples/haxchi/installer/libxml2/lib\libxml2.a(tree.o)
 .debug_frame   0x00000000     0x1968 e:/Apps/devkitPro/libwiiu/examples/haxchi/installer/libxml2/lib\libxml2.a(tree.o)
 .data          0x00000000        0x0 e:/Apps/devkitPro/libwiiu/examples/haxchi/installer/libxml2/lib\libxml2.a(hash.o)
 .bss           0x00000000        0x0 e:/Apps/devkitPro/libwiiu/examples/haxchi/installer/libxml2/lib\libxml2.a(hash.o)
 .debug_info    0x00000000     0x34a1 e:/Apps/devkitPro/libwiiu/examples/haxchi/installer/libxml2/lib\libxml2.a(hash.o)
 .debug_abbrev  0x00000000      0x42f e:/Apps/devkitPro/libwiiu/examples/haxchi/installer/libxml2/lib\libxml2.a(hash.o)
 .debug_loc     0x00000000     0x1e9b e:/Apps/devkitPro/libwiiu/examples/haxchi/installer/libxml2/lib\libxml2.a(hash.o)
 .debug_aranges
                0x00000000       0x20 e:/Apps/devkitPro/libwiiu/examples/haxchi/installer/libxml2/lib\libxml2.a(hash.o)
 .debug_ranges  0x00000000       0x40 e:/Apps/devkitPro/libwiiu/examples/haxchi/installer/libxml2/lib\libxml2.a(hash.o)
 .debug_line    0x00000000      0x623 e:/Apps/devkitPro/libwiiu/examples/haxchi/installer/libxml2/lib\libxml2.a(hash.o)
 .debug_str     0x00000000     0x1c83 e:/Apps/devkitPro/libwiiu/examples/haxchi/installer/libxml2/lib\libxml2.a(hash.o)
 .comment       0x00000000       0x23 e:/Apps/devkitPro/libwiiu/examples/haxchi/installer/libxml2/lib\libxml2.a(hash.o)
 .debug_frame   0x00000000      0x3e0 e:/Apps/devkitPro/libwiiu/examples/haxchi/installer/libxml2/lib\libxml2.a(hash.o)
 .debug_info    0x00000000     0x71f8 e:/Apps/devkitPro/libwiiu/examples/haxchi/installer/libxml2/lib\libxml2.a(xmlIO.o)
 .debug_abbrev  0x00000000      0x53d e:/Apps/devkitPro/libwiiu/examples/haxchi/installer/libxml2/lib\libxml2.a(xmlIO.o)
 .debug_loc     0x00000000     0x355f e:/Apps/devkitPro/libwiiu/examples/haxchi/installer/libxml2/lib\libxml2.a(xmlIO.o)
 .debug_aranges
                0x00000000       0x20 e:/Apps/devkitPro/libwiiu/examples/haxchi/installer/libxml2/lib\libxml2.a(xmlIO.o)
 .debug_ranges  0x00000000      0x158 e:/Apps/devkitPro/libwiiu/examples/haxchi/installer/libxml2/lib\libxml2.a(xmlIO.o)
 .debug_line    0x00000000      0xb8a e:/Apps/devkitPro/libwiiu/examples/haxchi/installer/libxml2/lib\libxml2.a(xmlIO.o)
 .debug_str     0x00000000     0x7b4c e:/Apps/devkitPro/libwiiu/examples/haxchi/installer/libxml2/lib\libxml2.a(xmlIO.o)
 .comment       0x00000000       0x23 e:/Apps/devkitPro/libwiiu/examples/haxchi/installer/libxml2/lib\libxml2.a(xmlIO.o)
 .debug_frame   0x00000000      0xa10 e:/Apps/devkitPro/libwiiu/examples/haxchi/installer/libxml2/lib\libxml2.a(xmlIO.o)
 .data          0x00000000        0x0 e:/Apps/devkitPro/libwiiu/examples/haxchi/installer/libxml2/lib\libxml2.a(xmlmemory.o)
 .debug_info    0x00000000     0x2b86 e:/Apps/devkitPro/libwiiu/examples/haxchi/installer/libxml2/lib\libxml2.a(xmlmemory.o)
 .debug_abbrev  0x00000000      0x413 e:/Apps/devkitPro/libwiiu/examples/haxchi/installer/libxml2/lib\libxml2.a(xmlmemory.o)
 .debug_loc     0x00000000      0xc87 e:/Apps/devkitPro/libwiiu/examples/haxchi/installer/libxml2/lib\libxml2.a(xmlmemory.o)
 .debug_aranges
                0x00000000       0x20 e:/Apps/devkitPro/libwiiu/examples/haxchi/installer/libxml2/lib\libxml2.a(xmlmemory.o)
 .debug_ranges  0x00000000       0x28 e:/Apps/devkitPro/libwiiu/examples/haxchi/installer/libxml2/lib\libxml2.a(xmlmemory.o)
 .debug_line    0x00000000      0x550 e:/Apps/devkitPro/libwiiu/examples/haxchi/installer/libxml2/lib\libxml2.a(xmlmemory.o)
 .debug_str     0x00000000     0x1c24 e:/Apps/devkitPro/libwiiu/examples/haxchi/installer/libxml2/lib\libxml2.a(xmlmemory.o)
 .comment       0x00000000       0x23 e:/Apps/devkitPro/libwiiu/examples/haxchi/installer/libxml2/lib\libxml2.a(xmlmemory.o)
 .debug_frame   0x00000000      0x330 e:/Apps/devkitPro/libwiiu/examples/haxchi/installer/libxml2/lib\libxml2.a(xmlmemory.o)
 .data          0x00000000        0x0 e:/Apps/devkitPro/libwiiu/examples/haxchi/installer/libxml2/lib\libxml2.a(uri.o)
 .bss           0x00000000        0x0 e:/Apps/devkitPro/libwiiu/examples/haxchi/installer/libxml2/lib\libxml2.a(uri.o)
 .debug_info    0x00000000     0x557e e:/Apps/devkitPro/libwiiu/examples/haxchi/installer/libxml2/lib\libxml2.a(uri.o)
 .debug_abbrev  0x00000000      0x559 e:/Apps/devkitPro/libwiiu/examples/haxchi/installer/libxml2/lib\libxml2.a(uri.o)
 .debug_loc     0x00000000     0x34a1 e:/Apps/devkitPro/libwiiu/examples/haxchi/installer/libxml2/lib\libxml2.a(uri.o)
 .debug_aranges
                0x00000000       0x28 e:/Apps/devkitPro/libwiiu/examples/haxchi/installer/libxml2/lib\libxml2.a(uri.o)
 .debug_ranges  0x00000000      0x398 e:/Apps/devkitPro/libwiiu/examples/haxchi/installer/libxml2/lib\libxml2.a(uri.o)
 .debug_line    0x00000000      0xefa e:/Apps/devkitPro/libwiiu/examples/haxchi/installer/libxml2/lib\libxml2.a(uri.o)
 .debug_str     0x00000000     0x6995 e:/Apps/devkitPro/libwiiu/examples/haxchi/installer/libxml2/lib\libxml2.a(uri.o)
 .comment       0x00000000       0x23 e:/Apps/devkitPro/libwiiu/examples/haxchi/installer/libxml2/lib\libxml2.a(uri.o)
 .debug_frame   0x00000000      0x5a4 e:/Apps/devkitPro/libwiiu/examples/haxchi/installer/libxml2/lib\libxml2.a(uri.o)
 .data          0x00000000        0x0 e:/Apps/devkitPro/libwiiu/examples/haxchi/installer/libxml2/lib\libxml2.a(valid.o)
 .bss           0x00000000        0x0 e:/Apps/devkitPro/libwiiu/examples/haxchi/installer/libxml2/lib\libxml2.a(valid.o)
 .debug_info    0x00000000     0x71d8 e:/Apps/devkitPro/libwiiu/examples/haxchi/installer/libxml2/lib\libxml2.a(valid.o)
 .debug_abbrev  0x00000000      0x50f e:/Apps/devkitPro/libwiiu/examples/haxchi/installer/libxml2/lib\libxml2.a(valid.o)
 .debug_loc     0x00000000     0x3522 e:/Apps/devkitPro/libwiiu/examples/haxchi/installer/libxml2/lib\libxml2.a(valid.o)
 .debug_aranges
                0x00000000       0x20 e:/Apps/devkitPro/libwiiu/examples/haxchi/installer/libxml2/lib\libxml2.a(valid.o)
 .debug_ranges  0x00000000      0x140 e:/Apps/devkitPro/libwiiu/examples/haxchi/installer/libxml2/lib\libxml2.a(valid.o)
 .debug_line    0x00000000      0xbd2 e:/Apps/devkitPro/libwiiu/examples/haxchi/installer/libxml2/lib\libxml2.a(valid.o)
 .debug_str     0x00000000     0x77d1 e:/Apps/devkitPro/libwiiu/examples/haxchi/installer/libxml2/lib\libxml2.a(valid.o)
 .comment       0x00000000       0x23 e:/Apps/devkitPro/libwiiu/examples/haxchi/installer/libxml2/lib\libxml2.a(valid.o)
 .debug_frame   0x00000000      0x92c e:/Apps/devkitPro/libwiiu/examples/haxchi/installer/libxml2/lib\libxml2.a(valid.o)
 .debug_info    0x00000000     0x2bad e:/Apps/devkitPro/libwiiu/examples/haxchi/installer/libxml2/lib\libxml2.a(globals.o)
 .debug_abbrev  0x00000000      0x335 e:/Apps/devkitPro/libwiiu/examples/haxchi/installer/libxml2/lib\libxml2.a(globals.o)
 .debug_loc     0x00000000      0x72f e:/Apps/devkitPro/libwiiu/examples/haxchi/installer/libxml2/lib\libxml2.a(globals.o)
 .debug_aranges
                0x00000000       0x20 e:/Apps/devkitPro/libwiiu/examples/haxchi/installer/libxml2/lib\libxml2.a(globals.o)
 .debug_line    0x00000000      0x3f2 e:/Apps/devkitPro/libwiiu/examples/haxchi/installer/libxml2/lib\libxml2.a(globals.o)
 .debug_str     0x00000000     0x21df e:/Apps/devkitPro/libwiiu/examples/haxchi/installer/libxml2/lib\libxml2.a(globals.o)
 .comment       0x00000000       0x23 e:/Apps/devkitPro/libwiiu/examples/haxchi/installer/libxml2/lib\libxml2.a(globals.o)
 .debug_frame   0x00000000      0x5d8 e:/Apps/devkitPro/libwiiu/examples/haxchi/installer/libxml2/lib\libxml2.a(globals.o)
 .data          0x00000000        0x0 e:/Apps/devkitPro/libwiiu/examples/haxchi/installer/libxml2/lib\libxml2.a(threads.o)
 .bss           0x00000000        0x0 e:/Apps/devkitPro/libwiiu/examples/haxchi/installer/libxml2/lib\libxml2.a(threads.o)
 .debug_info    0x00000000     0x21a6 e:/Apps/devkitPro/libwiiu/examples/haxchi/installer/libxml2/lib\libxml2.a(threads.o)
 .debug_abbrev  0x00000000      0x363 e:/Apps/devkitPro/libwiiu/examples/haxchi/installer/libxml2/lib\libxml2.a(threads.o)
 .debug_loc     0x00000000       0x42 e:/Apps/devkitPro/libwiiu/examples/haxchi/installer/libxml2/lib\libxml2.a(threads.o)
 .debug_aranges
                0x00000000       0x20 e:/Apps/devkitPro/libwiiu/examples/haxchi/installer/libxml2/lib\libxml2.a(threads.o)
 .debug_line    0x00000000      0x232 e:/Apps/devkitPro/libwiiu/examples/haxchi/installer/libxml2/lib\libxml2.a(threads.o)
 .debug_str     0x00000000     0x1af7 e:/Apps/devkitPro/libwiiu/examples/haxchi/installer/libxml2/lib\libxml2.a(threads.o)
 .comment       0x00000000       0x23 e:/Apps/devkitPro/libwiiu/examples/haxchi/installer/libxml2/lib\libxml2.a(threads.o)
 .debug_frame   0x00000000      0x130 e:/Apps/devkitPro/libwiiu/examples/haxchi/installer/libxml2/lib\libxml2.a(threads.o)
 .data          0x00000000        0x0 e:/Apps/devkitPro/libwiiu/examples/haxchi/installer/libxml2/lib\libxml2.a(xmlstring.o)
 .bss           0x00000000        0x0 e:/Apps/devkitPro/libwiiu/examples/haxchi/installer/libxml2/lib\libxml2.a(xmlstring.o)
 .debug_info    0x00000000     0x2f0d e:/Apps/devkitPro/libwiiu/examples/haxchi/installer/libxml2/lib\libxml2.a(xmlstring.o)
 .debug_abbrev  0x00000000      0x491 e:/Apps/devkitPro/libwiiu/examples/haxchi/installer/libxml2/lib\libxml2.a(xmlstring.o)
 .debug_loc     0x00000000     0x1aec e:/Apps/devkitPro/libwiiu/examples/haxchi/installer/libxml2/lib\libxml2.a(xmlstring.o)
 .debug_aranges
                0x00000000       0x20 e:/Apps/devkitPro/libwiiu/examples/haxchi/installer/libxml2/lib\libxml2.a(xmlstring.o)
 .debug_ranges  0x00000000       0x80 e:/Apps/devkitPro/libwiiu/examples/haxchi/installer/libxml2/lib\libxml2.a(xmlstring.o)
 .debug_line    0x00000000      0x5f1 e:/Apps/devkitPro/libwiiu/examples/haxchi/installer/libxml2/lib\libxml2.a(xmlstring.o)
 .debug_str     0x00000000     0x1c99 e:/Apps/devkitPro/libwiiu/examples/haxchi/installer/libxml2/lib\libxml2.a(xmlstring.o)
 .comment       0x00000000       0x23 e:/Apps/devkitPro/libwiiu/examples/haxchi/installer/libxml2/lib\libxml2.a(xmlstring.o)
 .debug_frame   0x00000000      0x418 e:/Apps/devkitPro/libwiiu/examples/haxchi/installer/libxml2/lib\libxml2.a(xmlstring.o)
 .gnu.attributes
                0x00000000       0x10 e:/Apps/devkitPro/libwiiu/examples/haxchi/installer/libxml2/lib\libxml2.a(xmlstring.o)
 .data          0x00000000        0x0 e:/Apps/devkitPro/libwiiu/examples/haxchi/installer/libxml2/lib\libxml2.a(buf.o)
 .bss           0x00000000        0x0 e:/Apps/devkitPro/libwiiu/examples/haxchi/installer/libxml2/lib\libxml2.a(buf.o)
 .debug_info    0x00000000     0x4619 e:/Apps/devkitPro/libwiiu/examples/haxchi/installer/libxml2/lib\libxml2.a(buf.o)
 .debug_abbrev  0x00000000      0x4e9 e:/Apps/devkitPro/libwiiu/examples/haxchi/installer/libxml2/lib\libxml2.a(buf.o)
 .debug_loc     0x00000000     0x1a35 e:/Apps/devkitPro/libwiiu/examples/haxchi/installer/libxml2/lib\libxml2.a(buf.o)
 .debug_aranges
                0x00000000       0x20 e:/Apps/devkitPro/libwiiu/examples/haxchi/installer/libxml2/lib\libxml2.a(buf.o)
 .debug_ranges  0x00000000      0x128 e:/Apps/devkitPro/libwiiu/examples/haxchi/installer/libxml2/lib\libxml2.a(buf.o)
 .debug_line    0x00000000      0xb21 e:/Apps/devkitPro/libwiiu/examples/haxchi/installer/libxml2/lib\libxml2.a(buf.o)
 .debug_str     0x00000000     0x69ce e:/Apps/devkitPro/libwiiu/examples/haxchi/installer/libxml2/lib\libxml2.a(buf.o)
 .comment       0x00000000       0x23 e:/Apps/devkitPro/libwiiu/examples/haxchi/installer/libxml2/lib\libxml2.a(buf.o)
 .debug_frame   0x00000000      0x554 e:/Apps/devkitPro/libwiiu/examples/haxchi/installer/libxml2/lib\libxml2.a(buf.o)
 .data          0x00000000        0x0 e:/Apps/devkitPro/libwiiu/examples/haxchi/installer/libxml2/lib\libxml2.a(dict.o)
 .debug_info    0x00000000     0x2f75 e:/Apps/devkitPro/libwiiu/examples/haxchi/installer/libxml2/lib\libxml2.a(dict.o)
 .debug_abbrev  0x00000000      0x4bb e:/Apps/devkitPro/libwiiu/examples/haxchi/installer/libxml2/lib\libxml2.a(dict.o)
 .debug_loc     0x00000000     0x18fc e:/Apps/devkitPro/libwiiu/examples/haxchi/installer/libxml2/lib\libxml2.a(dict.o)
 .debug_aranges
                0x00000000       0x20 e:/Apps/devkitPro/libwiiu/examples/haxchi/installer/libxml2/lib\libxml2.a(dict.o)
 .debug_ranges  0x00000000      0x158 e:/Apps/devkitPro/libwiiu/examples/haxchi/installer/libxml2/lib\libxml2.a(dict.o)
 .debug_line    0x00000000      0x7a9 e:/Apps/devkitPro/libwiiu/examples/haxchi/installer/libxml2/lib\libxml2.a(dict.o)
 .debug_str     0x00000000     0x1c58 e:/Apps/devkitPro/libwiiu/examples/haxchi/installer/libxml2/lib\libxml2.a(dict.o)
 .comment       0x00000000       0x23 e:/Apps/devkitPro/libwiiu/examples/haxchi/installer/libxml2/lib\libxml2.a(dict.o)
 .debug_frame   0x00000000      0x394 e:/Apps/devkitPro/libwiiu/examples/haxchi/installer/libxml2/lib\libxml2.a(dict.o)
 .data          0x00000000        0x0 e:/Apps/devkitPro/libwiiu/examples/haxchi/installer/libxml2/lib\libxml2.a(SAX2.o)
 .bss           0x00000000        0x0 e:/Apps/devkitPro/libwiiu/examples/haxchi/installer/libxml2/lib\libxml2.a(SAX2.o)
 .debug_info    0x00000000     0x67de e:/Apps/devkitPro/libwiiu/examples/haxchi/installer/libxml2/lib\libxml2.a(SAX2.o)
 .debug_abbrev  0x00000000      0x511 e:/Apps/devkitPro/libwiiu/examples/haxchi/installer/libxml2/lib\libxml2.a(SAX2.o)
 .debug_loc     0x00000000     0x3bfb e:/Apps/devkitPro/libwiiu/examples/haxchi/installer/libxml2/lib\libxml2.a(SAX2.o)
 .debug_aranges
                0x00000000       0x20 e:/Apps/devkitPro/libwiiu/examples/haxchi/installer/libxml2/lib\libxml2.a(SAX2.o)
 .debug_ranges  0x00000000      0x1a0 e:/Apps/devkitPro/libwiiu/examples/haxchi/installer/libxml2/lib\libxml2.a(SAX2.o)
 .debug_line    0x00000000      0xadb e:/Apps/devkitPro/libwiiu/examples/haxchi/installer/libxml2/lib\libxml2.a(SAX2.o)
 .debug_str     0x00000000     0x7973 e:/Apps/devkitPro/libwiiu/examples/haxchi/installer/libxml2/lib\libxml2.a(SAX2.o)
 .comment       0x00000000       0x23 e:/Apps/devkitPro/libwiiu/examples/haxchi/installer/libxml2/lib\libxml2.a(SAX2.o)
 .debug_frame   0x00000000      0x6c4 e:/Apps/devkitPro/libwiiu/examples/haxchi/installer/libxml2/lib\libxml2.a(SAX2.o)
 .data          0x00000000        0x0 e:/Apps/devkitPro/libwiiu/examples/haxchi/installer/libxml2/lib\libxml2.a(chvalid.o)
 .bss           0x00000000        0x0 e:/Apps/devkitPro/libwiiu/examples/haxchi/installer/libxml2/lib\libxml2.a(chvalid.o)
 .debug_info    0x00000000      0xdb3 e:/Apps/devkitPro/libwiiu/examples/haxchi/installer/libxml2/lib\libxml2.a(chvalid.o)
 .debug_abbrev  0x00000000      0x28b e:/Apps/devkitPro/libwiiu/examples/haxchi/installer/libxml2/lib\libxml2.a(chvalid.o)
 .debug_loc     0x00000000      0x39a e:/Apps/devkitPro/libwiiu/examples/haxchi/installer/libxml2/lib\libxml2.a(chvalid.o)
 .debug_aranges
                0x00000000       0x20 e:/Apps/devkitPro/libwiiu/examples/haxchi/installer/libxml2/lib\libxml2.a(chvalid.o)
 .debug_ranges  0x00000000       0x18 e:/Apps/devkitPro/libwiiu/examples/haxchi/installer/libxml2/lib\libxml2.a(chvalid.o)
 .debug_line    0x00000000      0x238 e:/Apps/devkitPro/libwiiu/examples/haxchi/installer/libxml2/lib\libxml2.a(chvalid.o)
 .debug_str     0x00000000      0x6e2 e:/Apps/devkitPro/libwiiu/examples/haxchi/installer/libxml2/lib\libxml2.a(chvalid.o)
 .comment       0x00000000       0x23 e:/Apps/devkitPro/libwiiu/examples/haxchi/installer/libxml2/lib\libxml2.a(chvalid.o)
 .debug_frame   0x00000000       0xa0 e:/Apps/devkitPro/libwiiu/examples/haxchi/installer/libxml2/lib\libxml2.a(chvalid.o)
 .data          0x00000000        0x0 e:/Apps/devkitPro/libwiiu/examples/haxchi/installer/libxml2/lib\libxml2.a(xmlsave.o)
 .bss           0x00000000        0x0 e:/Apps/devkitPro/libwiiu/examples/haxchi/installer/libxml2/lib\libxml2.a(xmlsave.o)
 .debug_info    0x00000000     0x66ee e:/Apps/devkitPro/libwiiu/examples/haxchi/installer/libxml2/lib\libxml2.a(xmlsave.o)
 .debug_abbrev  0x00000000      0x561 e:/Apps/devkitPro/libwiiu/examples/haxchi/installer/libxml2/lib\libxml2.a(xmlsave.o)
 .debug_loc     0x00000000     0x374b e:/Apps/devkitPro/libwiiu/examples/haxchi/installer/libxml2/lib\libxml2.a(xmlsave.o)
 .debug_aranges
                0x00000000       0x20 e:/Apps/devkitPro/libwiiu/examples/haxchi/installer/libxml2/lib\libxml2.a(xmlsave.o)
 .debug_ranges  0x00000000      0x138 e:/Apps/devkitPro/libwiiu/examples/haxchi/installer/libxml2/lib\libxml2.a(xmlsave.o)
 .debug_line    0x00000000      0xb54 e:/Apps/devkitPro/libwiiu/examples/haxchi/installer/libxml2/lib\libxml2.a(xmlsave.o)
 .debug_str     0x00000000     0x7189 e:/Apps/devkitPro/libwiiu/examples/haxchi/installer/libxml2/lib\libxml2.a(xmlsave.o)
 .comment       0x00000000       0x23 e:/Apps/devkitPro/libwiiu/examples/haxchi/installer/libxml2/lib\libxml2.a(xmlsave.o)
 .debug_frame   0x00000000      0x94c e:/Apps/devkitPro/libwiiu/examples/haxchi/installer/libxml2/lib\libxml2.a(xmlsave.o)
 .bss           0x00000000        0x0 e:/Apps/devkitPro/libwiiu/examples/haxchi/installer/libxml2/lib\libxml2.a(entities.o)
 .debug_info    0x00000000     0x4c77 e:/Apps/devkitPro/libwiiu/examples/haxchi/installer/libxml2/lib\libxml2.a(entities.o)
 .debug_abbrev  0x00000000      0x51c e:/Apps/devkitPro/libwiiu/examples/haxchi/installer/libxml2/lib\libxml2.a(entities.o)
 .debug_loc     0x00000000     0x229a e:/Apps/devkitPro/libwiiu/examples/haxchi/installer/libxml2/lib\libxml2.a(entities.o)
 .debug_aranges
                0x00000000       0x20 e:/Apps/devkitPro/libwiiu/examples/haxchi/installer/libxml2/lib\libxml2.a(entities.o)
 .debug_ranges  0x00000000      0x250 e:/Apps/devkitPro/libwiiu/examples/haxchi/installer/libxml2/lib\libxml2.a(entities.o)
 .debug_line    0x00000000      0x7c1 e:/Apps/devkitPro/libwiiu/examples/haxchi/installer/libxml2/lib\libxml2.a(entities.o)
 .debug_str     0x00000000     0x6b1c e:/Apps/devkitPro/libwiiu/examples/haxchi/installer/libxml2/lib\libxml2.a(entities.o)
 .comment       0x00000000       0x23 e:/Apps/devkitPro/libwiiu/examples/haxchi/installer/libxml2/lib\libxml2.a(entities.o)
 .debug_frame   0x00000000      0x3d8 e:/Apps/devkitPro/libwiiu/examples/haxchi/installer/libxml2/lib\libxml2.a(entities.o)
 .debug_info    0x00000000     0x600f e:/Apps/devkitPro/libwiiu/examples/haxchi/installer/libxml2/lib\libxml2.a(encoding.o)
 .debug_abbrev  0x00000000      0x53f e:/Apps/devkitPro/libwiiu/examples/haxchi/installer/libxml2/lib\libxml2.a(encoding.o)
 .debug_loc     0x00000000     0x36ca e:/Apps/devkitPro/libwiiu/examples/haxchi/installer/libxml2/lib\libxml2.a(encoding.o)
 .debug_aranges
                0x00000000       0x20 e:/Apps/devkitPro/libwiiu/examples/haxchi/installer/libxml2/lib\libxml2.a(encoding.o)
 .debug_ranges  0x00000000      0x178 e:/Apps/devkitPro/libwiiu/examples/haxchi/installer/libxml2/lib\libxml2.a(encoding.o)
 .debug_line    0x00000000      0xedb e:/Apps/devkitPro/libwiiu/examples/haxchi/installer/libxml2/lib\libxml2.a(encoding.o)
 .debug_str     0x00000000     0x71ff e:/Apps/devkitPro/libwiiu/examples/haxchi/installer/libxml2/lib\libxml2.a(encoding.o)
 .comment       0x00000000       0x23 e:/Apps/devkitPro/libwiiu/examples/haxchi/installer/libxml2/lib\libxml2.a(encoding.o)
 .debug_frame   0x00000000      0x774 e:/Apps/devkitPro/libwiiu/examples/haxchi/installer/libxml2/lib\libxml2.a(encoding.o)
 .data          0x00000000        0x0 e:/Apps/devkitPro/libwiiu/examples/haxchi/installer/libxml2/lib\libxml2.a(error.o)
 .debug_info    0x00000000     0x5305 e:/Apps/devkitPro/libwiiu/examples/haxchi/installer/libxml2/lib\libxml2.a(error.o)
 .debug_abbrev  0x00000000      0x4c4 e:/Apps/devkitPro/libwiiu/examples/haxchi/installer/libxml2/lib\libxml2.a(error.o)
 .debug_loc     0x00000000     0x278c e:/Apps/devkitPro/libwiiu/examples/haxchi/installer/libxml2/lib\libxml2.a(error.o)
 .debug_aranges
                0x00000000       0x20 e:/Apps/devkitPro/libwiiu/examples/haxchi/installer/libxml2/lib\libxml2.a(error.o)
 .debug_ranges  0x00000000      0x128 e:/Apps/devkitPro/libwiiu/examples/haxchi/installer/libxml2/lib\libxml2.a(error.o)
 .debug_line    0x00000000      0x7f1 e:/Apps/devkitPro/libwiiu/examples/haxchi/installer/libxml2/lib\libxml2.a(error.o)
 .debug_str     0x00000000     0x6e6c e:/Apps/devkitPro/libwiiu/examples/haxchi/installer/libxml2/lib\libxml2.a(error.o)
 .comment       0x00000000       0x23 e:/Apps/devkitPro/libwiiu/examples/haxchi/installer/libxml2/lib\libxml2.a(error.o)
 .debug_frame   0x00000000      0x3bc e:/Apps/devkitPro/libwiiu/examples/haxchi/installer/libxml2/lib\libxml2.a(error.o)
 .gnu.attributes
                0x00000000       0x10 e:/Apps/devkitPro/libwiiu/examples/haxchi/installer/libxml2/lib\libxml2.a(error.o)
 .data          0x00000000        0x0 e:/Apps/devkitPro/libwiiu/examples/haxchi/installer/libxml2/lib\libxml2.a(parserInternals.o)
 .bss           0x00000000        0x0 e:/Apps/devkitPro/libwiiu/examples/haxchi/installer/libxml2/lib\libxml2.a(parserInternals.o)
 .debug_info    0x00000000     0x5ff4 e:/Apps/devkitPro/libwiiu/examples/haxchi/installer/libxml2/lib\libxml2.a(parserInternals.o)
 .debug_abbrev  0x00000000      0x568 e:/Apps/devkitPro/libwiiu/examples/haxchi/installer/libxml2/lib\libxml2.a(parserInternals.o)
 .debug_loc     0x00000000     0x277a e:/Apps/devkitPro/libwiiu/examples/haxchi/installer/libxml2/lib\libxml2.a(parserInternals.o)
 .debug_aranges
                0x00000000       0x20 e:/Apps/devkitPro/libwiiu/examples/haxchi/installer/libxml2/lib\libxml2.a(parserInternals.o)
 .debug_ranges  0x00000000      0x228 e:/Apps/devkitPro/libwiiu/examples/haxchi/installer/libxml2/lib\libxml2.a(parserInternals.o)
 .debug_line    0x00000000      0xb7e e:/Apps/devkitPro/libwiiu/examples/haxchi/installer/libxml2/lib\libxml2.a(parserInternals.o)
 .debug_str     0x00000000     0x75c9 e:/Apps/devkitPro/libwiiu/examples/haxchi/installer/libxml2/lib\libxml2.a(parserInternals.o)
 .comment       0x00000000       0x23 e:/Apps/devkitPro/libwiiu/examples/haxchi/installer/libxml2/lib\libxml2.a(parserInternals.o)
 .debug_frame   0x00000000      0x684 e:/Apps/devkitPro/libwiiu/examples/haxchi/installer/libxml2/lib\libxml2.a(parserInternals.o)
 .data          0x00000000        0x0 e:/Apps/devkitPro/libwiiu/examples/haxchi/installer/libxml2/lib\libxml2.a(list.o)
 .bss           0x00000000        0x0 e:/Apps/devkitPro/libwiiu/examples/haxchi/installer/libxml2/lib\libxml2.a(list.o)
 .debug_info    0x00000000     0x2b3d e:/Apps/devkitPro/libwiiu/examples/haxchi/installer/libxml2/lib\libxml2.a(list.o)
 .debug_abbrev  0x00000000      0x4ab e:/Apps/devkitPro/libwiiu/examples/haxchi/installer/libxml2/lib\libxml2.a(list.o)
 .debug_loc     0x00000000     0x1130 e:/Apps/devkitPro/libwiiu/examples/haxchi/installer/libxml2/lib\libxml2.a(list.o)
 .debug_aranges
                0x00000000       0x20 e:/Apps/devkitPro/libwiiu/examples/haxchi/installer/libxml2/lib\libxml2.a(list.o)
 .debug_ranges  0x00000000       0x70 e:/Apps/devkitPro/libwiiu/examples/haxchi/installer/libxml2/lib\libxml2.a(list.o)
 .debug_line    0x00000000      0x46a e:/Apps/devkitPro/libwiiu/examples/haxchi/installer/libxml2/lib\libxml2.a(list.o)
 .debug_str     0x00000000     0x1bb0 e:/Apps/devkitPro/libwiiu/examples/haxchi/installer/libxml2/lib\libxml2.a(list.o)
 .comment       0x00000000       0x23 e:/Apps/devkitPro/libwiiu/examples/haxchi/installer/libxml2/lib\libxml2.a(list.o)
 .debug_frame   0x00000000      0x4cc e:/Apps/devkitPro/libwiiu/examples/haxchi/installer/libxml2/lib\libxml2.a(list.o)
 .bss           0x00000000        0x0 e:/apps/devkitpro/devkitppc/bin/../lib/gcc/powerpc-eabi/6.2.0/../../../../powerpc-eabi/lib\libsysbase.a(chdir.o)
 .comment       0x00000000       0x23 e:/apps/devkitpro/devkitppc/bin/../lib/gcc/powerpc-eabi/6.2.0/../../../../powerpc-eabi/lib\libsysbase.a(chdir.o)
 .bss           0x00000000        0x0 e:/apps/devkitpro/devkitppc/bin/../lib/gcc/powerpc-eabi/6.2.0/../../../../powerpc-eabi/lib\libsysbase.a(iosupport.o)
 .comment       0x00000000       0x23 e:/apps/devkitpro/devkitppc/bin/../lib/gcc/powerpc-eabi/6.2.0/../../../../powerpc-eabi/lib\libsysbase.a(iosupport.o)
 .text          0x00000000        0x0 e:/apps/devkitpro/devkitppc/bin/../lib/gcc/powerpc-eabi/6.2.0/../../../../powerpc-eabi/lib\libc.a(lib_a-ctype_.o)
 .data          0x00000000        0x0 e:/apps/devkitpro/devkitppc/bin/../lib/gcc/powerpc-eabi/6.2.0/../../../../powerpc-eabi/lib\libc.a(lib_a-ctype_.o)
 .bss           0x00000000        0x0 e:/apps/devkitpro/devkitppc/bin/../lib/gcc/powerpc-eabi/6.2.0/../../../../powerpc-eabi/lib\libc.a(lib_a-ctype_.o)
 .text.__set_ctype
                0x00000000       0x14 e:/apps/devkitpro/devkitppc/bin/../lib/gcc/powerpc-eabi/6.2.0/../../../../powerpc-eabi/lib\libc.a(lib_a-ctype_.o)
 .comment       0x00000000       0x23 e:/apps/devkitpro/devkitppc/bin/../lib/gcc/powerpc-eabi/6.2.0/../../../../powerpc-eabi/lib\libc.a(lib_a-ctype_.o)
 .text          0x00000000        0x0 e:/apps/devkitpro/devkitppc/bin/../lib/gcc/powerpc-eabi/6.2.0/../../../../powerpc-eabi/lib\libc.a(lib_a-errno.o)
 .data          0x00000000        0x0 e:/apps/devkitpro/devkitppc/bin/../lib/gcc/powerpc-eabi/6.2.0/../../../../powerpc-eabi/lib\libc.a(lib_a-errno.o)
 .bss           0x00000000        0x0 e:/apps/devkitpro/devkitppc/bin/../lib/gcc/powerpc-eabi/6.2.0/../../../../powerpc-eabi/lib\libc.a(lib_a-errno.o)
 .comment       0x00000000       0x23 e:/apps/devkitpro/devkitppc/bin/../lib/gcc/powerpc-eabi/6.2.0/../../../../powerpc-eabi/lib\libc.a(lib_a-errno.o)
 .text          0x00000000        0x0 e:/apps/devkitpro/devkitppc/bin/../lib/gcc/powerpc-eabi/6.2.0/../../../../powerpc-eabi/lib\libc.a(lib_a-fclose.o)
 .data          0x00000000        0x0 e:/apps/devkitpro/devkitppc/bin/../lib/gcc/powerpc-eabi/6.2.0/../../../../powerpc-eabi/lib\libc.a(lib_a-fclose.o)
 .bss           0x00000000        0x0 e:/apps/devkitpro/devkitppc/bin/../lib/gcc/powerpc-eabi/6.2.0/../../../../powerpc-eabi/lib\libc.a(lib_a-fclose.o)
 .comment       0x00000000       0x23 e:/apps/devkitpro/devkitppc/bin/../lib/gcc/powerpc-eabi/6.2.0/../../../../powerpc-eabi/lib\libc.a(lib_a-fclose.o)
 .text          0x00000000        0x0 e:/apps/devkitpro/devkitppc/bin/../lib/gcc/powerpc-eabi/6.2.0/../../../../powerpc-eabi/lib\libc.a(lib_a-fflush.o)
 .data          0x00000000        0x0 e:/apps/devkitpro/devkitppc/bin/../lib/gcc/powerpc-eabi/6.2.0/../../../../powerpc-eabi/lib\libc.a(lib_a-fflush.o)
 .bss           0x00000000        0x0 e:/apps/devkitpro/devkitppc/bin/../lib/gcc/powerpc-eabi/6.2.0/../../../../powerpc-eabi/lib\libc.a(lib_a-fflush.o)
 .comment       0x00000000       0x23 e:/apps/devkitpro/devkitppc/bin/../lib/gcc/powerpc-eabi/6.2.0/../../../../powerpc-eabi/lib\libc.a(lib_a-fflush.o)
 .text          0x00000000        0x0 e:/apps/devkitpro/devkitppc/bin/../lib/gcc/powerpc-eabi/6.2.0/../../../../powerpc-eabi/lib\libc.a(lib_a-findfp.o)
 .data          0x00000000        0x0 e:/apps/devkitpro/devkitppc/bin/../lib/gcc/powerpc-eabi/6.2.0/../../../../powerpc-eabi/lib\libc.a(lib_a-findfp.o)
 .bss           0x00000000        0x0 e:/apps/devkitpro/devkitppc/bin/../lib/gcc/powerpc-eabi/6.2.0/../../../../powerpc-eabi/lib\libc.a(lib_a-findfp.o)
 .text.__fp_lock
                0x00000000       0x38 e:/apps/devkitpro/devkitppc/bin/../lib/gcc/powerpc-eabi/6.2.0/../../../../powerpc-eabi/lib\libc.a(lib_a-findfp.o)
 .text.__fp_unlock
                0x00000000       0x38 e:/apps/devkitpro/devkitppc/bin/../lib/gcc/powerpc-eabi/6.2.0/../../../../powerpc-eabi/lib\libc.a(lib_a-findfp.o)
 .text._cleanup
                0x00000000       0x14 e:/apps/devkitpro/devkitppc/bin/../lib/gcc/powerpc-eabi/6.2.0/../../../../powerpc-eabi/lib\libc.a(lib_a-findfp.o)
 .text.__sinit_lock_release
                0x00000000        0xc e:/apps/devkitpro/devkitppc/bin/../lib/gcc/powerpc-eabi/6.2.0/../../../../powerpc-eabi/lib\libc.a(lib_a-findfp.o)
 .text.__fp_lock_all
                0x00000000       0x30 e:/apps/devkitpro/devkitppc/bin/../lib/gcc/powerpc-eabi/6.2.0/../../../../powerpc-eabi/lib\libc.a(lib_a-findfp.o)
 .text.__fp_unlock_all
                0x00000000       0x38 e:/apps/devkitpro/devkitppc/bin/../lib/gcc/powerpc-eabi/6.2.0/../../../../powerpc-eabi/lib\libc.a(lib_a-findfp.o)
 .comment       0x00000000       0x23 e:/apps/devkitpro/devkitppc/bin/../lib/gcc/powerpc-eabi/6.2.0/../../../../powerpc-eabi/lib\libc.a(lib_a-findfp.o)
 .text          0x00000000        0x0 e:/apps/devkitpro/devkitppc/bin/../lib/gcc/powerpc-eabi/6.2.0/../../../../powerpc-eabi/lib\libc.a(lib_a-fopen.o)
 .data          0x00000000        0x0 e:/apps/devkitpro/devkitppc/bin/../lib/gcc/powerpc-eabi/6.2.0/../../../../powerpc-eabi/lib\libc.a(lib_a-fopen.o)
 .bss           0x00000000        0x0 e:/apps/devkitpro/devkitppc/bin/../lib/gcc/powerpc-eabi/6.2.0/../../../../powerpc-eabi/lib\libc.a(lib_a-fopen.o)
 .comment       0x00000000       0x23 e:/apps/devkitpro/devkitppc/bin/../lib/gcc/powerpc-eabi/6.2.0/../../../../powerpc-eabi/lib\libc.a(lib_a-fopen.o)
 .text          0x00000000        0x0 e:/apps/devkitpro/devkitppc/bin/../lib/gcc/powerpc-eabi/6.2.0/../../../../powerpc-eabi/lib\libc.a(lib_a-fprintf.o)
 .data          0x00000000        0x0 e:/apps/devkitpro/devkitppc/bin/../lib/gcc/powerpc-eabi/6.2.0/../../../../powerpc-eabi/lib\libc.a(lib_a-fprintf.o)
 .bss           0x00000000        0x0 e:/apps/devkitpro/devkitppc/bin/../lib/gcc/powerpc-eabi/6.2.0/../../../../powerpc-eabi/lib\libc.a(lib_a-fprintf.o)
 .text._fprintf_r
                0x00000000       0x7c e:/apps/devkitpro/devkitppc/bin/../lib/gcc/powerpc-eabi/6.2.0/../../../../powerpc-eabi/lib\libc.a(lib_a-fprintf.o)
 .comment       0x00000000       0x23 e:/apps/devkitpro/devkitppc/bin/../lib/gcc/powerpc-eabi/6.2.0/../../../../powerpc-eabi/lib\libc.a(lib_a-fprintf.o)
 .gnu.attributes
                0x00000000       0x10 e:/apps/devkitpro/devkitppc/bin/../lib/gcc/powerpc-eabi/6.2.0/../../../../powerpc-eabi/lib\libc.a(lib_a-fprintf.o)
 .text          0x00000000        0x0 e:/apps/devkitpro/devkitppc/bin/../lib/gcc/powerpc-eabi/6.2.0/../../../../powerpc-eabi/lib\libc.a(lib_a-fputs.o)
 .data          0x00000000        0x0 e:/apps/devkitpro/devkitppc/bin/../lib/gcc/powerpc-eabi/6.2.0/../../../../powerpc-eabi/lib\libc.a(lib_a-fputs.o)
 .bss           0x00000000        0x0 e:/apps/devkitpro/devkitppc/bin/../lib/gcc/powerpc-eabi/6.2.0/../../../../powerpc-eabi/lib\libc.a(lib_a-fputs.o)
 .comment       0x00000000       0x23 e:/apps/devkitpro/devkitppc/bin/../lib/gcc/powerpc-eabi/6.2.0/../../../../powerpc-eabi/lib\libc.a(lib_a-fputs.o)
 .text          0x00000000        0x0 e:/apps/devkitpro/devkitppc/bin/../lib/gcc/powerpc-eabi/6.2.0/../../../../powerpc-eabi/lib\libc.a(lib_a-fread.o)
 .data          0x00000000        0x0 e:/apps/devkitpro/devkitppc/bin/../lib/gcc/powerpc-eabi/6.2.0/../../../../powerpc-eabi/lib\libc.a(lib_a-fread.o)
 .bss           0x00000000        0x0 e:/apps/devkitpro/devkitppc/bin/../lib/gcc/powerpc-eabi/6.2.0/../../../../powerpc-eabi/lib\libc.a(lib_a-fread.o)
 .comment       0x00000000       0x23 e:/apps/devkitpro/devkitppc/bin/../lib/gcc/powerpc-eabi/6.2.0/../../../../powerpc-eabi/lib\libc.a(lib_a-fread.o)
 .text          0x00000000        0x0 e:/apps/devkitpro/devkitppc/bin/../lib/gcc/powerpc-eabi/6.2.0/../../../../powerpc-eabi/lib\libc.a(lib_a-fseek.o)
 .data          0x00000000        0x0 e:/apps/devkitpro/devkitppc/bin/../lib/gcc/powerpc-eabi/6.2.0/../../../../powerpc-eabi/lib\libc.a(lib_a-fseek.o)
 .bss           0x00000000        0x0 e:/apps/devkitpro/devkitppc/bin/../lib/gcc/powerpc-eabi/6.2.0/../../../../powerpc-eabi/lib\libc.a(lib_a-fseek.o)
 .text.fseek    0x00000000       0x10 e:/apps/devkitpro/devkitppc/bin/../lib/gcc/powerpc-eabi/6.2.0/../../../../powerpc-eabi/lib\libc.a(lib_a-fseek.o)
 .comment       0x00000000       0x23 e:/apps/devkitpro/devkitppc/bin/../lib/gcc/powerpc-eabi/6.2.0/../../../../powerpc-eabi/lib\libc.a(lib_a-fseek.o)
 .text          0x00000000        0x0 e:/apps/devkitpro/devkitppc/bin/../lib/gcc/powerpc-eabi/6.2.0/../../../../powerpc-eabi/lib\libc.a(lib_a-fseeko.o)
 .data          0x00000000        0x0 e:/apps/devkitpro/devkitppc/bin/../lib/gcc/powerpc-eabi/6.2.0/../../../../powerpc-eabi/lib\libc.a(lib_a-fseeko.o)
 .bss           0x00000000        0x0 e:/apps/devkitpro/devkitppc/bin/../lib/gcc/powerpc-eabi/6.2.0/../../../../powerpc-eabi/lib\libc.a(lib_a-fseeko.o)
 .text.fseeko   0x00000000       0x10 e:/apps/devkitpro/devkitppc/bin/../lib/gcc/powerpc-eabi/6.2.0/../../../../powerpc-eabi/lib\libc.a(lib_a-fseeko.o)
 .comment       0x00000000       0x23 e:/apps/devkitpro/devkitppc/bin/../lib/gcc/powerpc-eabi/6.2.0/../../../../powerpc-eabi/lib\libc.a(lib_a-fseeko.o)
 .text          0x00000000        0x0 e:/apps/devkitpro/devkitppc/bin/../lib/gcc/powerpc-eabi/6.2.0/../../../../powerpc-eabi/lib\libc.a(lib_a-fvwrite.o)
 .data          0x00000000        0x0 e:/apps/devkitpro/devkitppc/bin/../lib/gcc/powerpc-eabi/6.2.0/../../../../powerpc-eabi/lib\libc.a(lib_a-fvwrite.o)
 .bss           0x00000000        0x0 e:/apps/devkitpro/devkitppc/bin/../lib/gcc/powerpc-eabi/6.2.0/../../../../powerpc-eabi/lib\libc.a(lib_a-fvwrite.o)
 .comment       0x00000000       0x23 e:/apps/devkitpro/devkitppc/bin/../lib/gcc/powerpc-eabi/6.2.0/../../../../powerpc-eabi/lib\libc.a(lib_a-fvwrite.o)
 .text          0x00000000        0x0 e:/apps/devkitpro/devkitppc/bin/../lib/gcc/powerpc-eabi/6.2.0/../../../../powerpc-eabi/lib\libc.a(lib_a-fwalk.o)
 .data          0x00000000        0x0 e:/apps/devkitpro/devkitppc/bin/../lib/gcc/powerpc-eabi/6.2.0/../../../../powerpc-eabi/lib\libc.a(lib_a-fwalk.o)
 .bss           0x00000000        0x0 e:/apps/devkitpro/devkitppc/bin/../lib/gcc/powerpc-eabi/6.2.0/../../../../powerpc-eabi/lib\libc.a(lib_a-fwalk.o)
 .comment       0x00000000       0x23 e:/apps/devkitpro/devkitppc/bin/../lib/gcc/powerpc-eabi/6.2.0/../../../../powerpc-eabi/lib\libc.a(lib_a-fwalk.o)
 .text          0x00000000        0x0 e:/apps/devkitpro/devkitppc/bin/../lib/gcc/powerpc-eabi/6.2.0/../../../../powerpc-eabi/lib\libc.a(lib_a-fwrite.o)
 .data          0x00000000        0x0 e:/apps/devkitpro/devkitppc/bin/../lib/gcc/powerpc-eabi/6.2.0/../../../../powerpc-eabi/lib\libc.a(lib_a-fwrite.o)
 .bss           0x00000000        0x0 e:/apps/devkitpro/devkitppc/bin/../lib/gcc/powerpc-eabi/6.2.0/../../../../powerpc-eabi/lib\libc.a(lib_a-fwrite.o)
 .comment       0x00000000       0x23 e:/apps/devkitpro/devkitppc/bin/../lib/gcc/powerpc-eabi/6.2.0/../../../../powerpc-eabi/lib\libc.a(lib_a-fwrite.o)
 .text          0x00000000        0x0 e:/apps/devkitpro/devkitppc/bin/../lib/gcc/powerpc-eabi/6.2.0/../../../../powerpc-eabi/lib\libc.a(lib_a-getenv.o)
 .data          0x00000000        0x0 e:/apps/devkitpro/devkitppc/bin/../lib/gcc/powerpc-eabi/6.2.0/../../../../powerpc-eabi/lib\libc.a(lib_a-getenv.o)
 .bss           0x00000000        0x0 e:/apps/devkitpro/devkitppc/bin/../lib/gcc/powerpc-eabi/6.2.0/../../../../powerpc-eabi/lib\libc.a(lib_a-getenv.o)
 .text._findenv
                0x00000000       0x14 e:/apps/devkitpro/devkitppc/bin/../lib/gcc/powerpc-eabi/6.2.0/../../../../powerpc-eabi/lib\libc.a(lib_a-getenv.o)
 .comment       0x00000000       0x23 e:/apps/devkitpro/devkitppc/bin/../lib/gcc/powerpc-eabi/6.2.0/../../../../powerpc-eabi/lib\libc.a(lib_a-getenv.o)
 .text          0x00000000        0x0 e:/apps/devkitpro/devkitppc/bin/../lib/gcc/powerpc-eabi/6.2.0/../../../../powerpc-eabi/lib\libc.a(lib_a-getenv_r.o)
 .data          0x00000000        0x0 e:/apps/devkitpro/devkitppc/bin/../lib/gcc/powerpc-eabi/6.2.0/../../../../powerpc-eabi/lib\libc.a(lib_a-getenv_r.o)
 .bss           0x00000000        0x0 e:/apps/devkitpro/devkitppc/bin/../lib/gcc/powerpc-eabi/6.2.0/../../../../powerpc-eabi/lib\libc.a(lib_a-getenv_r.o)
 .text._getenv_r
                0x00000000       0x24 e:/apps/devkitpro/devkitppc/bin/../lib/gcc/powerpc-eabi/6.2.0/../../../../powerpc-eabi/lib\libc.a(lib_a-getenv_r.o)
 .comment       0x00000000       0x23 e:/apps/devkitpro/devkitppc/bin/../lib/gcc/powerpc-eabi/6.2.0/../../../../powerpc-eabi/lib\libc.a(lib_a-getenv_r.o)
 .text          0x00000000        0x0 e:/apps/devkitpro/devkitppc/bin/../lib/gcc/powerpc-eabi/6.2.0/../../../../powerpc-eabi/lib\libc.a(lib_a-impure.o)
 .data          0x00000000        0x0 e:/apps/devkitpro/devkitppc/bin/../lib/gcc/powerpc-eabi/6.2.0/../../../../powerpc-eabi/lib\libc.a(lib_a-impure.o)
 .bss           0x00000000        0x0 e:/apps/devkitpro/devkitppc/bin/../lib/gcc/powerpc-eabi/6.2.0/../../../../powerpc-eabi/lib\libc.a(lib_a-impure.o)
 .comment       0x00000000       0x23 e:/apps/devkitpro/devkitppc/bin/../lib/gcc/powerpc-eabi/6.2.0/../../../../powerpc-eabi/lib\libc.a(lib_a-impure.o)
 .text          0x00000000        0x0 e:/apps/devkitpro/devkitppc/bin/../lib/gcc/powerpc-eabi/6.2.0/../../../../powerpc-eabi/lib\libc.a(lib_a-makebuf.o)
 .data          0x00000000        0x0 e:/apps/devkitpro/devkitppc/bin/../lib/gcc/powerpc-eabi/6.2.0/../../../../powerpc-eabi/lib\libc.a(lib_a-makebuf.o)
 .bss           0x00000000        0x0 e:/apps/devkitpro/devkitppc/bin/../lib/gcc/powerpc-eabi/6.2.0/../../../../powerpc-eabi/lib\libc.a(lib_a-makebuf.o)
 .comment       0x00000000       0x23 e:/apps/devkitpro/devkitppc/bin/../lib/gcc/powerpc-eabi/6.2.0/../../../../powerpc-eabi/lib\libc.a(lib_a-makebuf.o)
 .text          0x00000000        0x0 e:/apps/devkitpro/devkitppc/bin/../lib/gcc/powerpc-eabi/6.2.0/../../../../powerpc-eabi/lib\libc.a(lib_a-memchr.o)
 .data          0x00000000        0x0 e:/apps/devkitpro/devkitppc/bin/../lib/gcc/powerpc-eabi/6.2.0/../../../../powerpc-eabi/lib\libc.a(lib_a-memchr.o)
 .bss           0x00000000        0x0 e:/apps/devkitpro/devkitppc/bin/../lib/gcc/powerpc-eabi/6.2.0/../../../../powerpc-eabi/lib\libc.a(lib_a-memchr.o)
 .comment       0x00000000       0x23 e:/apps/devkitpro/devkitppc/bin/../lib/gcc/powerpc-eabi/6.2.0/../../../../powerpc-eabi/lib\libc.a(lib_a-memchr.o)
 .text          0x00000000        0x0 e:/apps/devkitpro/devkitppc/bin/../lib/gcc/powerpc-eabi/6.2.0/../../../../powerpc-eabi/lib\libc.a(lib_a-memcmp.o)
 .data          0x00000000        0x0 e:/apps/devkitpro/devkitppc/bin/../lib/gcc/powerpc-eabi/6.2.0/../../../../powerpc-eabi/lib\libc.a(lib_a-memcmp.o)
 .bss           0x00000000        0x0 e:/apps/devkitpro/devkitppc/bin/../lib/gcc/powerpc-eabi/6.2.0/../../../../powerpc-eabi/lib\libc.a(lib_a-memcmp.o)
 .comment       0x00000000       0x23 e:/apps/devkitpro/devkitppc/bin/../lib/gcc/powerpc-eabi/6.2.0/../../../../powerpc-eabi/lib\libc.a(lib_a-memcmp.o)
 .text          0x00000000        0x0 e:/apps/devkitpro/devkitppc/bin/../lib/gcc/powerpc-eabi/6.2.0/../../../../powerpc-eabi/lib\libc.a(lib_a-memcpy.o)
 .data          0x00000000        0x0 e:/apps/devkitpro/devkitppc/bin/../lib/gcc/powerpc-eabi/6.2.0/../../../../powerpc-eabi/lib\libc.a(lib_a-memcpy.o)
 .bss           0x00000000        0x0 e:/apps/devkitpro/devkitppc/bin/../lib/gcc/powerpc-eabi/6.2.0/../../../../powerpc-eabi/lib\libc.a(lib_a-memcpy.o)
 .comment       0x00000000       0x23 e:/apps/devkitpro/devkitppc/bin/../lib/gcc/powerpc-eabi/6.2.0/../../../../powerpc-eabi/lib\libc.a(lib_a-memcpy.o)
 .text          0x00000000        0x0 e:/apps/devkitpro/devkitppc/bin/../lib/gcc/powerpc-eabi/6.2.0/../../../../powerpc-eabi/lib\libc.a(lib_a-memmove.o)
 .data          0x00000000        0x0 e:/apps/devkitpro/devkitppc/bin/../lib/gcc/powerpc-eabi/6.2.0/../../../../powerpc-eabi/lib\libc.a(lib_a-memmove.o)
 .bss           0x00000000        0x0 e:/apps/devkitpro/devkitppc/bin/../lib/gcc/powerpc-eabi/6.2.0/../../../../powerpc-eabi/lib\libc.a(lib_a-memmove.o)
 .comment       0x00000000       0x23 e:/apps/devkitpro/devkitppc/bin/../lib/gcc/powerpc-eabi/6.2.0/../../../../powerpc-eabi/lib\libc.a(lib_a-memmove.o)
 .text          0x00000000        0x0 e:/apps/devkitpro/devkitppc/bin/../lib/gcc/powerpc-eabi/6.2.0/../../../../powerpc-eabi/lib\libc.a(lib_a-memset.o)
 .data          0x00000000        0x0 e:/apps/devkitpro/devkitppc/bin/../lib/gcc/powerpc-eabi/6.2.0/../../../../powerpc-eabi/lib\libc.a(lib_a-memset.o)
 .bss           0x00000000        0x0 e:/apps/devkitpro/devkitppc/bin/../lib/gcc/powerpc-eabi/6.2.0/../../../../powerpc-eabi/lib\libc.a(lib_a-memset.o)
 .comment       0x00000000       0x23 e:/apps/devkitpro/devkitppc/bin/../lib/gcc/powerpc-eabi/6.2.0/../../../../powerpc-eabi/lib\libc.a(lib_a-memset.o)
 .text          0x00000000        0x0 e:/apps/devkitpro/devkitppc/bin/../lib/gcc/powerpc-eabi/6.2.0/../../../../powerpc-eabi/lib\libc.a(lib_a-qsort.o)
 .data          0x00000000        0x0 e:/apps/devkitpro/devkitppc/bin/../lib/gcc/powerpc-eabi/6.2.0/../../../../powerpc-eabi/lib\libc.a(lib_a-qsort.o)
 .bss           0x00000000        0x0 e:/apps/devkitpro/devkitppc/bin/../lib/gcc/powerpc-eabi/6.2.0/../../../../powerpc-eabi/lib\libc.a(lib_a-qsort.o)
 .comment       0x00000000       0x23 e:/apps/devkitpro/devkitppc/bin/../lib/gcc/powerpc-eabi/6.2.0/../../../../powerpc-eabi/lib\libc.a(lib_a-qsort.o)
 .text          0x00000000        0x0 e:/apps/devkitpro/devkitppc/bin/../lib/gcc/powerpc-eabi/6.2.0/../../../../powerpc-eabi/lib\libc.a(lib_a-rand_r.o)
 .data          0x00000000        0x0 e:/apps/devkitpro/devkitppc/bin/../lib/gcc/powerpc-eabi/6.2.0/../../../../powerpc-eabi/lib\libc.a(lib_a-rand_r.o)
 .bss           0x00000000        0x0 e:/apps/devkitpro/devkitppc/bin/../lib/gcc/powerpc-eabi/6.2.0/../../../../powerpc-eabi/lib\libc.a(lib_a-rand_r.o)
 .comment       0x00000000       0x23 e:/apps/devkitpro/devkitppc/bin/../lib/gcc/powerpc-eabi/6.2.0/../../../../powerpc-eabi/lib\libc.a(lib_a-rand_r.o)
 .text          0x00000000        0x0 e:/apps/devkitpro/devkitppc/bin/../lib/gcc/powerpc-eabi/6.2.0/../../../../powerpc-eabi/lib\libc.a(lib_a-refill.o)
 .data          0x00000000        0x0 e:/apps/devkitpro/devkitppc/bin/../lib/gcc/powerpc-eabi/6.2.0/../../../../powerpc-eabi/lib\libc.a(lib_a-refill.o)
 .bss           0x00000000        0x0 e:/apps/devkitpro/devkitppc/bin/../lib/gcc/powerpc-eabi/6.2.0/../../../../powerpc-eabi/lib\libc.a(lib_a-refill.o)
 .comment       0x00000000       0x23 e:/apps/devkitpro/devkitppc/bin/../lib/gcc/powerpc-eabi/6.2.0/../../../../powerpc-eabi/lib\libc.a(lib_a-refill.o)
 .text          0x00000000        0x0 e:/apps/devkitpro/devkitppc/bin/../lib/gcc/powerpc-eabi/6.2.0/../../../../powerpc-eabi/lib\libc.a(lib_a-snprintf.o)
 .data          0x00000000        0x0 e:/apps/devkitpro/devkitppc/bin/../lib/gcc/powerpc-eabi/6.2.0/../../../../powerpc-eabi/lib\libc.a(lib_a-snprintf.o)
 .bss           0x00000000        0x0 e:/apps/devkitpro/devkitppc/bin/../lib/gcc/powerpc-eabi/6.2.0/../../../../powerpc-eabi/lib\libc.a(lib_a-snprintf.o)
 .text._snprintf_r
                0x00000000      0x15c e:/apps/devkitpro/devkitppc/bin/../lib/gcc/powerpc-eabi/6.2.0/../../../../powerpc-eabi/lib\libc.a(lib_a-snprintf.o)
 .comment       0x00000000       0x23 e:/apps/devkitpro/devkitppc/bin/../lib/gcc/powerpc-eabi/6.2.0/../../../../powerpc-eabi/lib\libc.a(lib_a-snprintf.o)
 .gnu.attributes
                0x00000000       0x10 e:/apps/devkitpro/devkitppc/bin/../lib/gcc/powerpc-eabi/6.2.0/../../../../powerpc-eabi/lib\libc.a(lib_a-snprintf.o)
 .text          0x00000000        0x0 e:/apps/devkitpro/devkitppc/bin/../lib/gcc/powerpc-eabi/6.2.0/../../../../powerpc-eabi/lib\libc.a(lib_a-sprintf.o)
 .data          0x00000000        0x0 e:/apps/devkitpro/devkitppc/bin/../lib/gcc/powerpc-eabi/6.2.0/../../../../powerpc-eabi/lib\libc.a(lib_a-sprintf.o)
 .bss           0x00000000        0x0 e:/apps/devkitpro/devkitppc/bin/../lib/gcc/powerpc-eabi/6.2.0/../../../../powerpc-eabi/lib\libc.a(lib_a-sprintf.o)
 .text._sprintf_r
                0x00000000       0xbc e:/apps/devkitpro/devkitppc/bin/../lib/gcc/powerpc-eabi/6.2.0/../../../../powerpc-eabi/lib\libc.a(lib_a-sprintf.o)
 .comment       0x00000000       0x23 e:/apps/devkitpro/devkitppc/bin/../lib/gcc/powerpc-eabi/6.2.0/../../../../powerpc-eabi/lib\libc.a(lib_a-sprintf.o)
 .gnu.attributes
                0x00000000       0x10 e:/apps/devkitpro/devkitppc/bin/../lib/gcc/powerpc-eabi/6.2.0/../../../../powerpc-eabi/lib\libc.a(lib_a-sprintf.o)
 .text          0x00000000        0x0 e:/apps/devkitpro/devkitppc/bin/../lib/gcc/powerpc-eabi/6.2.0/../../../../powerpc-eabi/lib\libc.a(lib_a-sscanf.o)
 .data          0x00000000        0x0 e:/apps/devkitpro/devkitppc/bin/../lib/gcc/powerpc-eabi/6.2.0/../../../../powerpc-eabi/lib\libc.a(lib_a-sscanf.o)
 .bss           0x00000000        0x0 e:/apps/devkitpro/devkitppc/bin/../lib/gcc/powerpc-eabi/6.2.0/../../../../powerpc-eabi/lib\libc.a(lib_a-sscanf.o)
 .text._sscanf_r
                0x00000000       0xd8 e:/apps/devkitpro/devkitppc/bin/../lib/gcc/powerpc-eabi/6.2.0/../../../../powerpc-eabi/lib\libc.a(lib_a-sscanf.o)
 .comment       0x00000000       0x23 e:/apps/devkitpro/devkitppc/bin/../lib/gcc/powerpc-eabi/6.2.0/../../../../powerpc-eabi/lib\libc.a(lib_a-sscanf.o)
 .gnu.attributes
                0x00000000       0x10 e:/apps/devkitpro/devkitppc/bin/../lib/gcc/powerpc-eabi/6.2.0/../../../../powerpc-eabi/lib\libc.a(lib_a-sscanf.o)
 .text          0x00000000        0x0 e:/apps/devkitpro/devkitppc/bin/../lib/gcc/powerpc-eabi/6.2.0/../../../../powerpc-eabi/lib\libc.a(lib_a-stdio.o)
 .data          0x00000000        0x0 e:/apps/devkitpro/devkitppc/bin/../lib/gcc/powerpc-eabi/6.2.0/../../../../powerpc-eabi/lib\libc.a(lib_a-stdio.o)
 .bss           0x00000000        0x0 e:/apps/devkitpro/devkitppc/bin/../lib/gcc/powerpc-eabi/6.2.0/../../../../powerpc-eabi/lib\libc.a(lib_a-stdio.o)
 .comment       0x00000000       0x23 e:/apps/devkitpro/devkitppc/bin/../lib/gcc/powerpc-eabi/6.2.0/../../../../powerpc-eabi/lib\libc.a(lib_a-stdio.o)
 .text          0x00000000        0x0 e:/apps/devkitpro/devkitppc/bin/../lib/gcc/powerpc-eabi/6.2.0/../../../../powerpc-eabi/lib\libc.a(lib_a-stpcpy.o)
 .data          0x00000000        0x0 e:/apps/devkitpro/devkitppc/bin/../lib/gcc/powerpc-eabi/6.2.0/../../../../powerpc-eabi/lib\libc.a(lib_a-stpcpy.o)
 .bss           0x00000000        0x0 e:/apps/devkitpro/devkitppc/bin/../lib/gcc/powerpc-eabi/6.2.0/../../../../powerpc-eabi/lib\libc.a(lib_a-stpcpy.o)
 .comment       0x00000000       0x23 e:/apps/devkitpro/devkitppc/bin/../lib/gcc/powerpc-eabi/6.2.0/../../../../powerpc-eabi/lib\libc.a(lib_a-stpcpy.o)
 .text          0x00000000        0x0 e:/apps/devkitpro/devkitppc/bin/../lib/gcc/powerpc-eabi/6.2.0/../../../../powerpc-eabi/lib\libc.a(lib_a-strcat.o)
 .data          0x00000000        0x0 e:/apps/devkitpro/devkitppc/bin/../lib/gcc/powerpc-eabi/6.2.0/../../../../powerpc-eabi/lib\libc.a(lib_a-strcat.o)
 .bss           0x00000000        0x0 e:/apps/devkitpro/devkitppc/bin/../lib/gcc/powerpc-eabi/6.2.0/../../../../powerpc-eabi/lib\libc.a(lib_a-strcat.o)
 .comment       0x00000000       0x23 e:/apps/devkitpro/devkitppc/bin/../lib/gcc/powerpc-eabi/6.2.0/../../../../powerpc-eabi/lib\libc.a(lib_a-strcat.o)
 .text          0x00000000        0x0 e:/apps/devkitpro/devkitppc/bin/../lib/gcc/powerpc-eabi/6.2.0/../../../../powerpc-eabi/lib\libc.a(lib_a-strchr.o)
 .data          0x00000000        0x0 e:/apps/devkitpro/devkitppc/bin/../lib/gcc/powerpc-eabi/6.2.0/../../../../powerpc-eabi/lib\libc.a(lib_a-strchr.o)
 .bss           0x00000000        0x0 e:/apps/devkitpro/devkitppc/bin/../lib/gcc/powerpc-eabi/6.2.0/../../../../powerpc-eabi/lib\libc.a(lib_a-strchr.o)
 .comment       0x00000000       0x23 e:/apps/devkitpro/devkitppc/bin/../lib/gcc/powerpc-eabi/6.2.0/../../../../powerpc-eabi/lib\libc.a(lib_a-strchr.o)
 .text          0x00000000        0x0 e:/apps/devkitpro/devkitppc/bin/../lib/gcc/powerpc-eabi/6.2.0/../../../../powerpc-eabi/lib\libc.a(lib_a-strcmp.o)
 .data          0x00000000        0x0 e:/apps/devkitpro/devkitppc/bin/../lib/gcc/powerpc-eabi/6.2.0/../../../../powerpc-eabi/lib\libc.a(lib_a-strcmp.o)
 .bss           0x00000000        0x0 e:/apps/devkitpro/devkitppc/bin/../lib/gcc/powerpc-eabi/6.2.0/../../../../powerpc-eabi/lib\libc.a(lib_a-strcmp.o)
 .comment       0x00000000       0x23 e:/apps/devkitpro/devkitppc/bin/../lib/gcc/powerpc-eabi/6.2.0/../../../../powerpc-eabi/lib\libc.a(lib_a-strcmp.o)
 .text          0x00000000        0x0 e:/apps/devkitpro/devkitppc/bin/../lib/gcc/powerpc-eabi/6.2.0/../../../../powerpc-eabi/lib\libc.a(lib_a-strcpy.o)
 .data          0x00000000        0x0 e:/apps/devkitpro/devkitppc/bin/../lib/gcc/powerpc-eabi/6.2.0/../../../../powerpc-eabi/lib\libc.a(lib_a-strcpy.o)
 .bss           0x00000000        0x0 e:/apps/devkitpro/devkitppc/bin/../lib/gcc/powerpc-eabi/6.2.0/../../../../powerpc-eabi/lib\libc.a(lib_a-strcpy.o)
 .comment       0x00000000       0x23 e:/apps/devkitpro/devkitppc/bin/../lib/gcc/powerpc-eabi/6.2.0/../../../../powerpc-eabi/lib\libc.a(lib_a-strcpy.o)
 .text          0x00000000        0x0 e:/apps/devkitpro/devkitppc/bin/../lib/gcc/powerpc-eabi/6.2.0/../../../../powerpc-eabi/lib\libc.a(lib_a-strlen.o)
 .data          0x00000000        0x0 e:/apps/devkitpro/devkitppc/bin/../lib/gcc/powerpc-eabi/6.2.0/../../../../powerpc-eabi/lib\libc.a(lib_a-strlen.o)
 .bss           0x00000000        0x0 e:/apps/devkitpro/devkitppc/bin/../lib/gcc/powerpc-eabi/6.2.0/../../../../powerpc-eabi/lib\libc.a(lib_a-strlen.o)
 .comment       0x00000000       0x23 e:/apps/devkitpro/devkitppc/bin/../lib/gcc/powerpc-eabi/6.2.0/../../../../powerpc-eabi/lib\libc.a(lib_a-strlen.o)
 .text          0x00000000        0x0 e:/apps/devkitpro/devkitppc/bin/../lib/gcc/powerpc-eabi/6.2.0/../../../../powerpc-eabi/lib\libc.a(lib_a-strncmp.o)
 .data          0x00000000        0x0 e:/apps/devkitpro/devkitppc/bin/../lib/gcc/powerpc-eabi/6.2.0/../../../../powerpc-eabi/lib\libc.a(lib_a-strncmp.o)
 .bss           0x00000000        0x0 e:/apps/devkitpro/devkitppc/bin/../lib/gcc/powerpc-eabi/6.2.0/../../../../powerpc-eabi/lib\libc.a(lib_a-strncmp.o)
 .comment       0x00000000       0x23 e:/apps/devkitpro/devkitppc/bin/../lib/gcc/powerpc-eabi/6.2.0/../../../../powerpc-eabi/lib\libc.a(lib_a-strncmp.o)
 .text          0x00000000        0x0 e:/apps/devkitpro/devkitppc/bin/../lib/gcc/powerpc-eabi/6.2.0/../../../../powerpc-eabi/lib\libc.a(lib_a-strncpy.o)
 .data          0x00000000        0x0 e:/apps/devkitpro/devkitppc/bin/../lib/gcc/powerpc-eabi/6.2.0/../../../../powerpc-eabi/lib\libc.a(lib_a-strncpy.o)
 .bss           0x00000000        0x0 e:/apps/devkitpro/devkitppc/bin/../lib/gcc/powerpc-eabi/6.2.0/../../../../powerpc-eabi/lib\libc.a(lib_a-strncpy.o)
 .comment       0x00000000       0x23 e:/apps/devkitpro/devkitppc/bin/../lib/gcc/powerpc-eabi/6.2.0/../../../../powerpc-eabi/lib\libc.a(lib_a-strncpy.o)
 .text          0x00000000        0x0 e:/apps/devkitpro/devkitppc/bin/../lib/gcc/powerpc-eabi/6.2.0/../../../../powerpc-eabi/lib\libc.a(lib_a-strnlen.o)
 .data          0x00000000        0x0 e:/apps/devkitpro/devkitppc/bin/../lib/gcc/powerpc-eabi/6.2.0/../../../../powerpc-eabi/lib\libc.a(lib_a-strnlen.o)
 .bss           0x00000000        0x0 e:/apps/devkitpro/devkitppc/bin/../lib/gcc/powerpc-eabi/6.2.0/../../../../powerpc-eabi/lib\libc.a(lib_a-strnlen.o)
 .comment       0x00000000       0x23 e:/apps/devkitpro/devkitppc/bin/../lib/gcc/powerpc-eabi/6.2.0/../../../../powerpc-eabi/lib\libc.a(lib_a-strnlen.o)
 .text          0x00000000        0x0 e:/apps/devkitpro/devkitppc/bin/../lib/gcc/powerpc-eabi/6.2.0/../../../../powerpc-eabi/lib\libc.a(lib_a-strrchr.o)
 .data          0x00000000        0x0 e:/apps/devkitpro/devkitppc/bin/../lib/gcc/powerpc-eabi/6.2.0/../../../../powerpc-eabi/lib\libc.a(lib_a-strrchr.o)
 .bss           0x00000000        0x0 e:/apps/devkitpro/devkitppc/bin/../lib/gcc/powerpc-eabi/6.2.0/../../../../powerpc-eabi/lib\libc.a(lib_a-strrchr.o)
 .comment       0x00000000       0x23 e:/apps/devkitpro/devkitppc/bin/../lib/gcc/powerpc-eabi/6.2.0/../../../../powerpc-eabi/lib\libc.a(lib_a-strrchr.o)
 .text          0x00000000        0x0 e:/apps/devkitpro/devkitppc/bin/../lib/gcc/powerpc-eabi/6.2.0/../../../../powerpc-eabi/lib\libc.a(lib_a-svfprintf.o)
 .data          0x00000000        0x0 e:/apps/devkitpro/devkitppc/bin/../lib/gcc/powerpc-eabi/6.2.0/../../../../powerpc-eabi/lib\libc.a(lib_a-svfprintf.o)
 .bss           0x00000000        0x0 e:/apps/devkitpro/devkitppc/bin/../lib/gcc/powerpc-eabi/6.2.0/../../../../powerpc-eabi/lib\libc.a(lib_a-svfprintf.o)
 .comment       0x00000000       0x23 e:/apps/devkitpro/devkitppc/bin/../lib/gcc/powerpc-eabi/6.2.0/../../../../powerpc-eabi/lib\libc.a(lib_a-svfprintf.o)
 .gnu.attributes
                0x00000000       0x10 e:/apps/devkitpro/devkitppc/bin/../lib/gcc/powerpc-eabi/6.2.0/../../../../powerpc-eabi/lib\libc.a(lib_a-svfprintf.o)
 .text          0x00000000        0x0 e:/apps/devkitpro/devkitppc/bin/../lib/gcc/powerpc-eabi/6.2.0/../../../../powerpc-eabi/lib\libc.a(lib_a-svfscanf.o)
 .data          0x00000000        0x0 e:/apps/devkitpro/devkitppc/bin/../lib/gcc/powerpc-eabi/6.2.0/../../../../powerpc-eabi/lib\libc.a(lib_a-svfscanf.o)
 .bss           0x00000000        0x0 e:/apps/devkitpro/devkitppc/bin/../lib/gcc/powerpc-eabi/6.2.0/../../../../powerpc-eabi/lib\libc.a(lib_a-svfscanf.o)
 .comment       0x00000000       0x23 e:/apps/devkitpro/devkitppc/bin/../lib/gcc/powerpc-eabi/6.2.0/../../../../powerpc-eabi/lib\libc.a(lib_a-svfscanf.o)
 .gnu.attributes
                0x00000000       0x10 e:/apps/devkitpro/devkitppc/bin/../lib/gcc/powerpc-eabi/6.2.0/../../../../powerpc-eabi/lib\libc.a(lib_a-svfscanf.o)
 .text          0x00000000        0x0 e:/apps/devkitpro/devkitppc/bin/../lib/gcc/powerpc-eabi/6.2.0/../../../../powerpc-eabi/lib\libc.a(lib_a-sysclose.o)
 .data          0x00000000        0x0 e:/apps/devkitpro/devkitppc/bin/../lib/gcc/powerpc-eabi/6.2.0/../../../../powerpc-eabi/lib\libc.a(lib_a-sysclose.o)
 .bss           0x00000000        0x0 e:/apps/devkitpro/devkitppc/bin/../lib/gcc/powerpc-eabi/6.2.0/../../../../powerpc-eabi/lib\libc.a(lib_a-sysclose.o)
 .comment       0x00000000       0x23 e:/apps/devkitpro/devkitppc/bin/../lib/gcc/powerpc-eabi/6.2.0/../../../../powerpc-eabi/lib\libc.a(lib_a-sysclose.o)
 .text          0x00000000        0x0 e:/apps/devkitpro/devkitppc/bin/../lib/gcc/powerpc-eabi/6.2.0/../../../../powerpc-eabi/lib\libc.a(lib_a-sysread.o)
 .data          0x00000000        0x0 e:/apps/devkitpro/devkitppc/bin/../lib/gcc/powerpc-eabi/6.2.0/../../../../powerpc-eabi/lib\libc.a(lib_a-sysread.o)
 .bss           0x00000000        0x0 e:/apps/devkitpro/devkitppc/bin/../lib/gcc/powerpc-eabi/6.2.0/../../../../powerpc-eabi/lib\libc.a(lib_a-sysread.o)
 .comment       0x00000000       0x23 e:/apps/devkitpro/devkitppc/bin/../lib/gcc/powerpc-eabi/6.2.0/../../../../powerpc-eabi/lib\libc.a(lib_a-sysread.o)
 .text          0x00000000        0x0 e:/apps/devkitpro/devkitppc/bin/../lib/gcc/powerpc-eabi/6.2.0/../../../../powerpc-eabi/lib\libc.a(lib_a-sysstat.o)
 .data          0x00000000        0x0 e:/apps/devkitpro/devkitppc/bin/../lib/gcc/powerpc-eabi/6.2.0/../../../../powerpc-eabi/lib\libc.a(lib_a-sysstat.o)
 .bss           0x00000000        0x0 e:/apps/devkitpro/devkitppc/bin/../lib/gcc/powerpc-eabi/6.2.0/../../../../powerpc-eabi/lib\libc.a(lib_a-sysstat.o)
 .comment       0x00000000       0x23 e:/apps/devkitpro/devkitppc/bin/../lib/gcc/powerpc-eabi/6.2.0/../../../../powerpc-eabi/lib\libc.a(lib_a-sysstat.o)
 .text          0x00000000        0x0 e:/apps/devkitpro/devkitppc/bin/../lib/gcc/powerpc-eabi/6.2.0/../../../../powerpc-eabi/lib\libc.a(lib_a-syswrite.o)
 .data          0x00000000        0x0 e:/apps/devkitpro/devkitppc/bin/../lib/gcc/powerpc-eabi/6.2.0/../../../../powerpc-eabi/lib\libc.a(lib_a-syswrite.o)
 .bss           0x00000000        0x0 e:/apps/devkitpro/devkitppc/bin/../lib/gcc/powerpc-eabi/6.2.0/../../../../powerpc-eabi/lib\libc.a(lib_a-syswrite.o)
 .comment       0x00000000       0x23 e:/apps/devkitpro/devkitppc/bin/../lib/gcc/powerpc-eabi/6.2.0/../../../../powerpc-eabi/lib\libc.a(lib_a-syswrite.o)
 .text          0x00000000        0x0 e:/apps/devkitpro/devkitppc/bin/../lib/gcc/powerpc-eabi/6.2.0/../../../../powerpc-eabi/lib\libc.a(lib_a-time.o)
 .data          0x00000000        0x0 e:/apps/devkitpro/devkitppc/bin/../lib/gcc/powerpc-eabi/6.2.0/../../../../powerpc-eabi/lib\libc.a(lib_a-time.o)
 .bss           0x00000000        0x0 e:/apps/devkitpro/devkitppc/bin/../lib/gcc/powerpc-eabi/6.2.0/../../../../powerpc-eabi/lib\libc.a(lib_a-time.o)
 .comment       0x00000000       0x23 e:/apps/devkitpro/devkitppc/bin/../lib/gcc/powerpc-eabi/6.2.0/../../../../powerpc-eabi/lib\libc.a(lib_a-time.o)
 .text          0x00000000        0x0 e:/apps/devkitpro/devkitppc/bin/../lib/gcc/powerpc-eabi/6.2.0/../../../../powerpc-eabi/lib\libc.a(lib_a-vfprintf.o)
 .data          0x00000000        0x0 e:/apps/devkitpro/devkitppc/bin/../lib/gcc/powerpc-eabi/6.2.0/../../../../powerpc-eabi/lib\libc.a(lib_a-vfprintf.o)
 .bss           0x00000000        0x0 e:/apps/devkitpro/devkitppc/bin/../lib/gcc/powerpc-eabi/6.2.0/../../../../powerpc-eabi/lib\libc.a(lib_a-vfprintf.o)
 .comment       0x00000000       0x23 e:/apps/devkitpro/devkitppc/bin/../lib/gcc/powerpc-eabi/6.2.0/../../../../powerpc-eabi/lib\libc.a(lib_a-vfprintf.o)
 .gnu.attributes
                0x00000000       0x10 e:/apps/devkitpro/devkitppc/bin/../lib/gcc/powerpc-eabi/6.2.0/../../../../powerpc-eabi/lib\libc.a(lib_a-vfprintf.o)
 .text          0x00000000        0x0 e:/apps/devkitpro/devkitppc/bin/../lib/gcc/powerpc-eabi/6.2.0/../../../../powerpc-eabi/lib\libc.a(lib_a-vsnprintf.o)
 .data          0x00000000        0x0 e:/apps/devkitpro/devkitppc/bin/../lib/gcc/powerpc-eabi/6.2.0/../../../../powerpc-eabi/lib\libc.a(lib_a-vsnprintf.o)
 .bss           0x00000000        0x0 e:/apps/devkitpro/devkitppc/bin/../lib/gcc/powerpc-eabi/6.2.0/../../../../powerpc-eabi/lib\libc.a(lib_a-vsnprintf.o)
 .comment       0x00000000       0x23 e:/apps/devkitpro/devkitppc/bin/../lib/gcc/powerpc-eabi/6.2.0/../../../../powerpc-eabi/lib\libc.a(lib_a-vsnprintf.o)
 .text          0x00000000        0x0 e:/apps/devkitpro/devkitppc/bin/../lib/gcc/powerpc-eabi/6.2.0/../../../../powerpc-eabi/lib\libc.a(lib_a-wcrtomb.o)
 .data          0x00000000        0x0 e:/apps/devkitpro/devkitppc/bin/../lib/gcc/powerpc-eabi/6.2.0/../../../../powerpc-eabi/lib\libc.a(lib_a-wcrtomb.o)
 .bss           0x00000000        0x0 e:/apps/devkitpro/devkitppc/bin/../lib/gcc/powerpc-eabi/6.2.0/../../../../powerpc-eabi/lib\libc.a(lib_a-wcrtomb.o)
 .text.wcrtomb  0x00000000       0xe0 e:/apps/devkitpro/devkitppc/bin/../lib/gcc/powerpc-eabi/6.2.0/../../../../powerpc-eabi/lib\libc.a(lib_a-wcrtomb.o)
 .comment       0x00000000       0x23 e:/apps/devkitpro/devkitppc/bin/../lib/gcc/powerpc-eabi/6.2.0/../../../../powerpc-eabi/lib\libc.a(lib_a-wcrtomb.o)
 .text          0x00000000        0x0 e:/apps/devkitpro/devkitppc/bin/../lib/gcc/powerpc-eabi/6.2.0/../../../../powerpc-eabi/lib\libc.a(lib_a-wcsrtombs.o)
 .data          0x00000000        0x0 e:/apps/devkitpro/devkitppc/bin/../lib/gcc/powerpc-eabi/6.2.0/../../../../powerpc-eabi/lib\libc.a(lib_a-wcsrtombs.o)
 .bss           0x00000000        0x0 e:/apps/devkitpro/devkitppc/bin/../lib/gcc/powerpc-eabi/6.2.0/../../../../powerpc-eabi/lib\libc.a(lib_a-wcsrtombs.o)
 .text.wcsrtombs
                0x00000000       0x20 e:/apps/devkitpro/devkitppc/bin/../lib/gcc/powerpc-eabi/6.2.0/../../../../powerpc-eabi/lib\libc.a(lib_a-wcsrtombs.o)
 .comment       0x00000000       0x23 e:/apps/devkitpro/devkitppc/bin/../lib/gcc/powerpc-eabi/6.2.0/../../../../powerpc-eabi/lib\libc.a(lib_a-wcsrtombs.o)
 .text          0x00000000        0x0 e:/apps/devkitpro/devkitppc/bin/../lib/gcc/powerpc-eabi/6.2.0/../../../../powerpc-eabi/lib\libc.a(lib_a-wctomb_r.o)
 .data          0x00000000        0x0 e:/apps/devkitpro/devkitppc/bin/../lib/gcc/powerpc-eabi/6.2.0/../../../../powerpc-eabi/lib\libc.a(lib_a-wctomb_r.o)
 .bss           0x00000000        0x0 e:/apps/devkitpro/devkitppc/bin/../lib/gcc/powerpc-eabi/6.2.0/../../../../powerpc-eabi/lib\libc.a(lib_a-wctomb_r.o)
 .text._wctomb_r
                0x00000000       0x68 e:/apps/devkitpro/devkitppc/bin/../lib/gcc/powerpc-eabi/6.2.0/../../../../powerpc-eabi/lib\libc.a(lib_a-wctomb_r.o)
 .text.__ascii_wctomb
                0x00000000       0x34 e:/apps/devkitpro/devkitppc/bin/../lib/gcc/powerpc-eabi/6.2.0/../../../../powerpc-eabi/lib\libc.a(lib_a-wctomb_r.o)
 .text.__sjis_wctomb
                0x00000000       0x8c e:/apps/devkitpro/devkitppc/bin/../lib/gcc/powerpc-eabi/6.2.0/../../../../powerpc-eabi/lib\libc.a(lib_a-wctomb_r.o)
 .text.__eucjp_wctomb
                0x00000000       0xb8 e:/apps/devkitpro/devkitppc/bin/../lib/gcc/powerpc-eabi/6.2.0/../../../../powerpc-eabi/lib\libc.a(lib_a-wctomb_r.o)
 .text.__jis_wctomb
                0x00000000       0xd0 e:/apps/devkitpro/devkitppc/bin/../lib/gcc/powerpc-eabi/6.2.0/../../../../powerpc-eabi/lib\libc.a(lib_a-wctomb_r.o)
 .comment       0x00000000       0x23 e:/apps/devkitpro/devkitppc/bin/../lib/gcc/powerpc-eabi/6.2.0/../../../../powerpc-eabi/lib\libc.a(lib_a-wctomb_r.o)
 .text          0x00000000        0x0 e:/apps/devkitpro/devkitppc/bin/../lib/gcc/powerpc-eabi/6.2.0/../../../../powerpc-eabi/lib\libc.a(lib_a-wsetup.o)
 .data          0x00000000        0x0 e:/apps/devkitpro/devkitppc/bin/../lib/gcc/powerpc-eabi/6.2.0/../../../../powerpc-eabi/lib\libc.a(lib_a-wsetup.o)
 .bss           0x00000000        0x0 e:/apps/devkitpro/devkitppc/bin/../lib/gcc/powerpc-eabi/6.2.0/../../../../powerpc-eabi/lib\libc.a(lib_a-wsetup.o)
 .comment       0x00000000       0x23 e:/apps/devkitpro/devkitppc/bin/../lib/gcc/powerpc-eabi/6.2.0/../../../../powerpc-eabi/lib\libc.a(lib_a-wsetup.o)
 .text          0x00000000        0x0 e:/apps/devkitpro/devkitppc/bin/../lib/gcc/powerpc-eabi/6.2.0/../../../../powerpc-eabi/lib\libc.a(lib_a-dtoa.o)
 .data          0x00000000        0x0 e:/apps/devkitpro/devkitppc/bin/../lib/gcc/powerpc-eabi/6.2.0/../../../../powerpc-eabi/lib\libc.a(lib_a-dtoa.o)
 .bss           0x00000000        0x0 e:/apps/devkitpro/devkitppc/bin/../lib/gcc/powerpc-eabi/6.2.0/../../../../powerpc-eabi/lib\libc.a(lib_a-dtoa.o)
 .comment       0x00000000       0x23 e:/apps/devkitpro/devkitppc/bin/../lib/gcc/powerpc-eabi/6.2.0/../../../../powerpc-eabi/lib\libc.a(lib_a-dtoa.o)
 .gnu.attributes
                0x00000000       0x10 e:/apps/devkitpro/devkitppc/bin/../lib/gcc/powerpc-eabi/6.2.0/../../../../powerpc-eabi/lib\libc.a(lib_a-dtoa.o)
 .text          0x00000000        0x0 e:/apps/devkitpro/devkitppc/bin/../lib/gcc/powerpc-eabi/6.2.0/../../../../powerpc-eabi/lib\libc.a(lib_a-environ.o)
 .data          0x00000000        0x0 e:/apps/devkitpro/devkitppc/bin/../lib/gcc/powerpc-eabi/6.2.0/../../../../powerpc-eabi/lib\libc.a(lib_a-environ.o)
 .bss           0x00000000        0x0 e:/apps/devkitpro/devkitppc/bin/../lib/gcc/powerpc-eabi/6.2.0/../../../../powerpc-eabi/lib\libc.a(lib_a-environ.o)
 .comment       0x00000000       0x23 e:/apps/devkitpro/devkitppc/bin/../lib/gcc/powerpc-eabi/6.2.0/../../../../powerpc-eabi/lib\libc.a(lib_a-environ.o)
 .text          0x00000000        0x0 e:/apps/devkitpro/devkitppc/bin/../lib/gcc/powerpc-eabi/6.2.0/../../../../powerpc-eabi/lib\libc.a(lib_a-envlock.o)
 .data          0x00000000        0x0 e:/apps/devkitpro/devkitppc/bin/../lib/gcc/powerpc-eabi/6.2.0/../../../../powerpc-eabi/lib\libc.a(lib_a-envlock.o)
 .bss           0x00000000        0x0 e:/apps/devkitpro/devkitppc/bin/../lib/gcc/powerpc-eabi/6.2.0/../../../../powerpc-eabi/lib\libc.a(lib_a-envlock.o)
 .comment       0x00000000       0x23 e:/apps/devkitpro/devkitppc/bin/../lib/gcc/powerpc-eabi/6.2.0/../../../../powerpc-eabi/lib\libc.a(lib_a-envlock.o)
 .text          0x00000000        0x0 e:/apps/devkitpro/devkitppc/bin/../lib/gcc/powerpc-eabi/6.2.0/../../../../powerpc-eabi/lib\libc.a(lib_a-flags.o)
 .data          0x00000000        0x0 e:/apps/devkitpro/devkitppc/bin/../lib/gcc/powerpc-eabi/6.2.0/../../../../powerpc-eabi/lib\libc.a(lib_a-flags.o)
 .bss           0x00000000        0x0 e:/apps/devkitpro/devkitppc/bin/../lib/gcc/powerpc-eabi/6.2.0/../../../../powerpc-eabi/lib\libc.a(lib_a-flags.o)
 .comment       0x00000000       0x23 e:/apps/devkitpro/devkitppc/bin/../lib/gcc/powerpc-eabi/6.2.0/../../../../powerpc-eabi/lib\libc.a(lib_a-flags.o)
 .text          0x00000000        0x0 e:/apps/devkitpro/devkitppc/bin/../lib/gcc/powerpc-eabi/6.2.0/../../../../powerpc-eabi/lib\libc.a(lib_a-iswspace.o)
 .data          0x00000000        0x0 e:/apps/devkitpro/devkitppc/bin/../lib/gcc/powerpc-eabi/6.2.0/../../../../powerpc-eabi/lib\libc.a(lib_a-iswspace.o)
 .bss           0x00000000        0x0 e:/apps/devkitpro/devkitppc/bin/../lib/gcc/powerpc-eabi/6.2.0/../../../../powerpc-eabi/lib\libc.a(lib_a-iswspace.o)
 .comment       0x00000000       0x23 e:/apps/devkitpro/devkitppc/bin/../lib/gcc/powerpc-eabi/6.2.0/../../../../powerpc-eabi/lib\libc.a(lib_a-iswspace.o)
 .text          0x00000000        0x0 e:/apps/devkitpro/devkitppc/bin/../lib/gcc/powerpc-eabi/6.2.0/../../../../powerpc-eabi/lib\libc.a(lib_a-jp2uc.o)
 .data          0x00000000        0x0 e:/apps/devkitpro/devkitppc/bin/../lib/gcc/powerpc-eabi/6.2.0/../../../../powerpc-eabi/lib\libc.a(lib_a-jp2uc.o)
 .bss           0x00000000        0x0 e:/apps/devkitpro/devkitppc/bin/../lib/gcc/powerpc-eabi/6.2.0/../../../../powerpc-eabi/lib\libc.a(lib_a-jp2uc.o)
 .comment       0x00000000       0x23 e:/apps/devkitpro/devkitppc/bin/../lib/gcc/powerpc-eabi/6.2.0/../../../../powerpc-eabi/lib\libc.a(lib_a-jp2uc.o)
 .text          0x00000000        0x0 e:/apps/devkitpro/devkitppc/bin/../lib/gcc/powerpc-eabi/6.2.0/../../../../powerpc-eabi/lib\libc.a(lib_a-locale.o)
 .data          0x00000000        0x0 e:/apps/devkitpro/devkitppc/bin/../lib/gcc/powerpc-eabi/6.2.0/../../../../powerpc-eabi/lib\libc.a(lib_a-locale.o)
 .bss           0x00000000        0x0 e:/apps/devkitpro/devkitppc/bin/../lib/gcc/powerpc-eabi/6.2.0/../../../../powerpc-eabi/lib\libc.a(lib_a-locale.o)
 .text.__get_locale_env
                0x00000000       0xac e:/apps/devkitpro/devkitppc/bin/../lib/gcc/powerpc-eabi/6.2.0/../../../../powerpc-eabi/lib\libc.a(lib_a-locale.o)
 .text.loadlocale
                0x00000000      0x840 e:/apps/devkitpro/devkitppc/bin/../lib/gcc/powerpc-eabi/6.2.0/../../../../powerpc-eabi/lib\libc.a(lib_a-locale.o)
 .rodata.loadlocale
                0x00000000       0xd4 e:/apps/devkitpro/devkitppc/bin/../lib/gcc/powerpc-eabi/6.2.0/../../../../powerpc-eabi/lib\libc.a(lib_a-locale.o)
 .text.currentlocale
                0x00000000       0xe8 e:/apps/devkitpro/devkitppc/bin/../lib/gcc/powerpc-eabi/6.2.0/../../../../powerpc-eabi/lib\libc.a(lib_a-locale.o)
 .text._setlocale_r
                0x00000000      0x408 e:/apps/devkitpro/devkitppc/bin/../lib/gcc/powerpc-eabi/6.2.0/../../../../powerpc-eabi/lib\libc.a(lib_a-locale.o)
 .text.__locale_msgcharset
                0x00000000        0xc e:/apps/devkitpro/devkitppc/bin/../lib/gcc/powerpc-eabi/6.2.0/../../../../powerpc-eabi/lib\libc.a(lib_a-locale.o)
 .text.__locale_cjk_lang
                0x00000000        0xc e:/apps/devkitpro/devkitppc/bin/../lib/gcc/powerpc-eabi/6.2.0/../../../../powerpc-eabi/lib\libc.a(lib_a-locale.o)
 .text.setlocale
                0x00000000       0x14 e:/apps/devkitpro/devkitppc/bin/../lib/gcc/powerpc-eabi/6.2.0/../../../../powerpc-eabi/lib\libc.a(lib_a-locale.o)
 .text.localeconv
                0x00000000        0xc e:/apps/devkitpro/devkitppc/bin/../lib/gcc/powerpc-eabi/6.2.0/../../../../powerpc-eabi/lib\libc.a(lib_a-locale.o)
 .bss.current_locale_string
                0x00000000       0xe7 e:/apps/devkitpro/devkitppc/bin/../lib/gcc/powerpc-eabi/6.2.0/../../../../powerpc-eabi/lib\libc.a(lib_a-locale.o)
 .bss.lc_ctype_cjk_lang
                0x00000000        0x4 e:/apps/devkitpro/devkitppc/bin/../lib/gcc/powerpc-eabi/6.2.0/../../../../powerpc-eabi/lib\libc.a(lib_a-locale.o)
 .bss.new_categories
                0x00000000       0xe0 e:/apps/devkitpro/devkitppc/bin/../lib/gcc/powerpc-eabi/6.2.0/../../../../powerpc-eabi/lib\libc.a(lib_a-locale.o)
 .bss.saved_categories
                0x00000000       0xe0 e:/apps/devkitpro/devkitppc/bin/../lib/gcc/powerpc-eabi/6.2.0/../../../../powerpc-eabi/lib\libc.a(lib_a-locale.o)
 .data.__default_locale
                0x00000000       0x20 e:/apps/devkitpro/devkitppc/bin/../lib/gcc/powerpc-eabi/6.2.0/../../../../powerpc-eabi/lib\libc.a(lib_a-locale.o)
 .data.current_categories
                0x00000000       0xe0 e:/apps/devkitpro/devkitppc/bin/../lib/gcc/powerpc-eabi/6.2.0/../../../../powerpc-eabi/lib\libc.a(lib_a-locale.o)
 .data.lc_message_charset
                0x00000000       0x20 e:/apps/devkitpro/devkitppc/bin/../lib/gcc/powerpc-eabi/6.2.0/../../../../powerpc-eabi/lib\libc.a(lib_a-locale.o)
 .rodata.__get_locale_env.str1.4
                0x00000000        0xd e:/apps/devkitpro/devkitppc/bin/../lib/gcc/powerpc-eabi/6.2.0/../../../../powerpc-eabi/lib\libc.a(lib_a-locale.o)
 .rodata.categories
                0x00000000       0x1c e:/apps/devkitpro/devkitppc/bin/../lib/gcc/powerpc-eabi/6.2.0/../../../../powerpc-eabi/lib\libc.a(lib_a-locale.o)
 .rodata.currentlocale.str1.4
                0x00000000        0x2 e:/apps/devkitpro/devkitppc/bin/../lib/gcc/powerpc-eabi/6.2.0/../../../../powerpc-eabi/lib\libc.a(lib_a-locale.o)
 .rodata.loadlocale.str1.4
                0x00000000       0xcf e:/apps/devkitpro/devkitppc/bin/../lib/gcc/powerpc-eabi/6.2.0/../../../../powerpc-eabi/lib\libc.a(lib_a-locale.o)
 .sbss._PathLocale
                0x00000000        0x4 e:/apps/devkitpro/devkitppc/bin/../lib/gcc/powerpc-eabi/6.2.0/../../../../powerpc-eabi/lib\libc.a(lib_a-locale.o)
 .sbss.__mlocale_changed
                0x00000000        0x4 e:/apps/devkitpro/devkitppc/bin/../lib/gcc/powerpc-eabi/6.2.0/../../../../powerpc-eabi/lib\libc.a(lib_a-locale.o)
 .sbss.__nlocale_changed
                0x00000000        0x4 e:/apps/devkitpro/devkitppc/bin/../lib/gcc/powerpc-eabi/6.2.0/../../../../powerpc-eabi/lib\libc.a(lib_a-locale.o)
 .comment       0x00000000       0x23 e:/apps/devkitpro/devkitppc/bin/../lib/gcc/powerpc-eabi/6.2.0/../../../../powerpc-eabi/lib\libc.a(lib_a-locale.o)
 .text          0x00000000        0x0 e:/apps/devkitpro/devkitppc/bin/../lib/gcc/powerpc-eabi/6.2.0/../../../../powerpc-eabi/lib\libc.a(lib_a-mbrtowc.o)
 .data          0x00000000        0x0 e:/apps/devkitpro/devkitppc/bin/../lib/gcc/powerpc-eabi/6.2.0/../../../../powerpc-eabi/lib\libc.a(lib_a-mbrtowc.o)
 .bss           0x00000000        0x0 e:/apps/devkitpro/devkitppc/bin/../lib/gcc/powerpc-eabi/6.2.0/../../../../powerpc-eabi/lib\libc.a(lib_a-mbrtowc.o)
 .text.mbrtowc  0x00000000       0xf8 e:/apps/devkitpro/devkitppc/bin/../lib/gcc/powerpc-eabi/6.2.0/../../../../powerpc-eabi/lib\libc.a(lib_a-mbrtowc.o)
 .comment       0x00000000       0x23 e:/apps/devkitpro/devkitppc/bin/../lib/gcc/powerpc-eabi/6.2.0/../../../../powerpc-eabi/lib\libc.a(lib_a-mbrtowc.o)
 .text          0x00000000        0x0 e:/apps/devkitpro/devkitppc/bin/../lib/gcc/powerpc-eabi/6.2.0/../../../../powerpc-eabi/lib\libc.a(lib_a-mbtowc_r.o)
 .data          0x00000000        0x0 e:/apps/devkitpro/devkitppc/bin/../lib/gcc/powerpc-eabi/6.2.0/../../../../powerpc-eabi/lib\libc.a(lib_a-mbtowc_r.o)
 .bss           0x00000000        0x0 e:/apps/devkitpro/devkitppc/bin/../lib/gcc/powerpc-eabi/6.2.0/../../../../powerpc-eabi/lib\libc.a(lib_a-mbtowc_r.o)
 .text._mbtowc_r
                0x00000000       0x70 e:/apps/devkitpro/devkitppc/bin/../lib/gcc/powerpc-eabi/6.2.0/../../../../powerpc-eabi/lib\libc.a(lib_a-mbtowc_r.o)
 .text.__ascii_mbtowc
                0x00000000       0x84 e:/apps/devkitpro/devkitppc/bin/../lib/gcc/powerpc-eabi/6.2.0/../../../../powerpc-eabi/lib\libc.a(lib_a-mbtowc_r.o)
 .text.__sjis_mbtowc
                0x00000000      0x1b0 e:/apps/devkitpro/devkitppc/bin/../lib/gcc/powerpc-eabi/6.2.0/../../../../powerpc-eabi/lib\libc.a(lib_a-mbtowc_r.o)
 .text.__eucjp_mbtowc
                0x00000000      0x23c e:/apps/devkitpro/devkitppc/bin/../lib/gcc/powerpc-eabi/6.2.0/../../../../powerpc-eabi/lib\libc.a(lib_a-mbtowc_r.o)
 .text.__jis_mbtowc
                0x00000000      0x224 e:/apps/devkitpro/devkitppc/bin/../lib/gcc/powerpc-eabi/6.2.0/../../../../powerpc-eabi/lib\libc.a(lib_a-mbtowc_r.o)
 .rodata.__jis_mbtowc
                0x00000000       0x18 e:/apps/devkitpro/devkitppc/bin/../lib/gcc/powerpc-eabi/6.2.0/../../../../powerpc-eabi/lib\libc.a(lib_a-mbtowc_r.o)
 .rodata.JIS_action_table
                0x00000000       0x48 e:/apps/devkitpro/devkitppc/bin/../lib/gcc/powerpc-eabi/6.2.0/../../../../powerpc-eabi/lib\libc.a(lib_a-mbtowc_r.o)
 .rodata.JIS_state_table
                0x00000000       0x48 e:/apps/devkitpro/devkitppc/bin/../lib/gcc/powerpc-eabi/6.2.0/../../../../powerpc-eabi/lib\libc.a(lib_a-mbtowc_r.o)
 .comment       0x00000000       0x23 e:/apps/devkitpro/devkitppc/bin/../lib/gcc/powerpc-eabi/6.2.0/../../../../powerpc-eabi/lib\libc.a(lib_a-mbtowc_r.o)
 .text          0x00000000        0x0 e:/apps/devkitpro/devkitppc/bin/../lib/gcc/powerpc-eabi/6.2.0/../../../../powerpc-eabi/lib\libc.a(lib_a-mprec.o)
 .data          0x00000000        0x0 e:/apps/devkitpro/devkitppc/bin/../lib/gcc/powerpc-eabi/6.2.0/../../../../powerpc-eabi/lib\libc.a(lib_a-mprec.o)
 .bss           0x00000000        0x0 e:/apps/devkitpro/devkitppc/bin/../lib/gcc/powerpc-eabi/6.2.0/../../../../powerpc-eabi/lib\libc.a(lib_a-mprec.o)
 .text._mprec_log10
                0x00000000       0x3c e:/apps/devkitpro/devkitppc/bin/../lib/gcc/powerpc-eabi/6.2.0/../../../../powerpc-eabi/lib\libc.a(lib_a-mprec.o)
 .rodata.__mprec_tinytens
                0x00000000       0x28 e:/apps/devkitpro/devkitppc/bin/../lib/gcc/powerpc-eabi/6.2.0/../../../../powerpc-eabi/lib\libc.a(lib_a-mprec.o)
 .rodata._mprec_log10.cst4
                0x00000000        0x8 e:/apps/devkitpro/devkitppc/bin/../lib/gcc/powerpc-eabi/6.2.0/../../../../powerpc-eabi/lib\libc.a(lib_a-mprec.o)
 .comment       0x00000000       0x23 e:/apps/devkitpro/devkitppc/bin/../lib/gcc/powerpc-eabi/6.2.0/../../../../powerpc-eabi/lib\libc.a(lib_a-mprec.o)
 .gnu.attributes
                0x00000000       0x10 e:/apps/devkitpro/devkitppc/bin/../lib/gcc/powerpc-eabi/6.2.0/../../../../powerpc-eabi/lib\libc.a(lib_a-mprec.o)
 .text          0x00000000        0x0 e:/apps/devkitpro/devkitppc/bin/../lib/gcc/powerpc-eabi/6.2.0/../../../../powerpc-eabi/lib\libc.a(lib_a-sccl.o)
 .data          0x00000000        0x0 e:/apps/devkitpro/devkitppc/bin/../lib/gcc/powerpc-eabi/6.2.0/../../../../powerpc-eabi/lib\libc.a(lib_a-sccl.o)
 .bss           0x00000000        0x0 e:/apps/devkitpro/devkitppc/bin/../lib/gcc/powerpc-eabi/6.2.0/../../../../powerpc-eabi/lib\libc.a(lib_a-sccl.o)
 .comment       0x00000000       0x23 e:/apps/devkitpro/devkitppc/bin/../lib/gcc/powerpc-eabi/6.2.0/../../../../powerpc-eabi/lib\libc.a(lib_a-sccl.o)
 .text          0x00000000        0x0 e:/apps/devkitpro/devkitppc/bin/../lib/gcc/powerpc-eabi/6.2.0/../../../../powerpc-eabi/lib\libc.a(lib_a-sf_nan.o)
 .data          0x00000000        0x0 e:/apps/devkitpro/devkitppc/bin/../lib/gcc/powerpc-eabi/6.2.0/../../../../powerpc-eabi/lib\libc.a(lib_a-sf_nan.o)
 .bss           0x00000000        0x0 e:/apps/devkitpro/devkitppc/bin/../lib/gcc/powerpc-eabi/6.2.0/../../../../powerpc-eabi/lib\libc.a(lib_a-sf_nan.o)
 .comment       0x00000000       0x23 e:/apps/devkitpro/devkitppc/bin/../lib/gcc/powerpc-eabi/6.2.0/../../../../powerpc-eabi/lib\libc.a(lib_a-sf_nan.o)
 .gnu.attributes
                0x00000000       0x10 e:/apps/devkitpro/devkitppc/bin/../lib/gcc/powerpc-eabi/6.2.0/../../../../powerpc-eabi/lib\libc.a(lib_a-sf_nan.o)
 .text          0x00000000        0x0 e:/apps/devkitpro/devkitppc/bin/../lib/gcc/powerpc-eabi/6.2.0/../../../../powerpc-eabi/lib\libc.a(lib_a-s_fpclassify.o)
 .data          0x00000000        0x0 e:/apps/devkitpro/devkitppc/bin/../lib/gcc/powerpc-eabi/6.2.0/../../../../powerpc-eabi/lib\libc.a(lib_a-s_fpclassify.o)
 .bss           0x00000000        0x0 e:/apps/devkitpro/devkitppc/bin/../lib/gcc/powerpc-eabi/6.2.0/../../../../powerpc-eabi/lib\libc.a(lib_a-s_fpclassify.o)
 .comment       0x00000000       0x23 e:/apps/devkitpro/devkitppc/bin/../lib/gcc/powerpc-eabi/6.2.0/../../../../powerpc-eabi/lib\libc.a(lib_a-s_fpclassify.o)
 .gnu.attributes
                0x00000000       0x10 e:/apps/devkitpro/devkitppc/bin/../lib/gcc/powerpc-eabi/6.2.0/../../../../powerpc-eabi/lib\libc.a(lib_a-s_fpclassify.o)
 .text          0x00000000        0x0 e:/apps/devkitpro/devkitppc/bin/../lib/gcc/powerpc-eabi/6.2.0/../../../../powerpc-eabi/lib\libc.a(lib_a-strcasecmp.o)
 .data          0x00000000        0x0 e:/apps/devkitpro/devkitppc/bin/../lib/gcc/powerpc-eabi/6.2.0/../../../../powerpc-eabi/lib\libc.a(lib_a-strcasecmp.o)
 .bss           0x00000000        0x0 e:/apps/devkitpro/devkitppc/bin/../lib/gcc/powerpc-eabi/6.2.0/../../../../powerpc-eabi/lib\libc.a(lib_a-strcasecmp.o)
 .text.strcasecmp
                0x00000000       0x6c e:/apps/devkitpro/devkitppc/bin/../lib/gcc/powerpc-eabi/6.2.0/../../../../powerpc-eabi/lib\libc.a(lib_a-strcasecmp.o)
 .comment       0x00000000       0x23 e:/apps/devkitpro/devkitppc/bin/../lib/gcc/powerpc-eabi/6.2.0/../../../../powerpc-eabi/lib\libc.a(lib_a-strcasecmp.o)
 .text          0x00000000        0x0 e:/apps/devkitpro/devkitppc/bin/../lib/gcc/powerpc-eabi/6.2.0/../../../../powerpc-eabi/lib\libc.a(lib_a-strlcpy.o)
 .data          0x00000000        0x0 e:/apps/devkitpro/devkitppc/bin/../lib/gcc/powerpc-eabi/6.2.0/../../../../powerpc-eabi/lib\libc.a(lib_a-strlcpy.o)
 .bss           0x00000000        0x0 e:/apps/devkitpro/devkitppc/bin/../lib/gcc/powerpc-eabi/6.2.0/../../../../powerpc-eabi/lib\libc.a(lib_a-strlcpy.o)
 .text.strlcpy  0x00000000       0x78 e:/apps/devkitpro/devkitppc/bin/../lib/gcc/powerpc-eabi/6.2.0/../../../../powerpc-eabi/lib\libc.a(lib_a-strlcpy.o)
 .comment       0x00000000       0x23 e:/apps/devkitpro/devkitppc/bin/../lib/gcc/powerpc-eabi/6.2.0/../../../../powerpc-eabi/lib\libc.a(lib_a-strlcpy.o)
 .text          0x00000000        0x0 e:/apps/devkitpro/devkitppc/bin/../lib/gcc/powerpc-eabi/6.2.0/../../../../powerpc-eabi/lib\libc.a(lib_a-strncasecmp.o)
 .data          0x00000000        0x0 e:/apps/devkitpro/devkitppc/bin/../lib/gcc/powerpc-eabi/6.2.0/../../../../powerpc-eabi/lib\libc.a(lib_a-strncasecmp.o)
 .bss           0x00000000        0x0 e:/apps/devkitpro/devkitppc/bin/../lib/gcc/powerpc-eabi/6.2.0/../../../../powerpc-eabi/lib\libc.a(lib_a-strncasecmp.o)
 .text.strncasecmp
                0x00000000       0x80 e:/apps/devkitpro/devkitppc/bin/../lib/gcc/powerpc-eabi/6.2.0/../../../../powerpc-eabi/lib\libc.a(lib_a-strncasecmp.o)
 .comment       0x00000000       0x23 e:/apps/devkitpro/devkitppc/bin/../lib/gcc/powerpc-eabi/6.2.0/../../../../powerpc-eabi/lib\libc.a(lib_a-strncasecmp.o)
 .text          0x00000000        0x0 e:/apps/devkitpro/devkitppc/bin/../lib/gcc/powerpc-eabi/6.2.0/../../../../powerpc-eabi/lib\libc.a(lib_a-strtod.o)
 .data          0x00000000        0x0 e:/apps/devkitpro/devkitppc/bin/../lib/gcc/powerpc-eabi/6.2.0/../../../../powerpc-eabi/lib\libc.a(lib_a-strtod.o)
 .bss           0x00000000        0x0 e:/apps/devkitpro/devkitppc/bin/../lib/gcc/powerpc-eabi/6.2.0/../../../../powerpc-eabi/lib\libc.a(lib_a-strtod.o)
 .text.strtod   0x00000000       0x14 e:/apps/devkitpro/devkitppc/bin/../lib/gcc/powerpc-eabi/6.2.0/../../../../powerpc-eabi/lib\libc.a(lib_a-strtod.o)
 .text.strtof   0x00000000       0x60 e:/apps/devkitpro/devkitppc/bin/../lib/gcc/powerpc-eabi/6.2.0/../../../../powerpc-eabi/lib\libc.a(lib_a-strtod.o)
 .comment       0x00000000       0x23 e:/apps/devkitpro/devkitppc/bin/../lib/gcc/powerpc-eabi/6.2.0/../../../../powerpc-eabi/lib\libc.a(lib_a-strtod.o)
 .gnu.attributes
                0x00000000       0x10 e:/apps/devkitpro/devkitppc/bin/../lib/gcc/powerpc-eabi/6.2.0/../../../../powerpc-eabi/lib\libc.a(lib_a-strtod.o)
 .text          0x00000000        0x0 e:/apps/devkitpro/devkitppc/bin/../lib/gcc/powerpc-eabi/6.2.0/../../../../powerpc-eabi/lib\libc.a(lib_a-strtoll_r.o)
 .data          0x00000000        0x0 e:/apps/devkitpro/devkitppc/bin/../lib/gcc/powerpc-eabi/6.2.0/../../../../powerpc-eabi/lib\libc.a(lib_a-strtoll_r.o)
 .bss           0x00000000        0x0 e:/apps/devkitpro/devkitppc/bin/../lib/gcc/powerpc-eabi/6.2.0/../../../../powerpc-eabi/lib\libc.a(lib_a-strtoll_r.o)
 .comment       0x00000000       0x23 e:/apps/devkitpro/devkitppc/bin/../lib/gcc/powerpc-eabi/6.2.0/../../../../powerpc-eabi/lib\libc.a(lib_a-strtoll_r.o)
 .text          0x00000000        0x0 e:/apps/devkitpro/devkitppc/bin/../lib/gcc/powerpc-eabi/6.2.0/../../../../powerpc-eabi/lib\libc.a(lib_a-strtol.o)
 .data          0x00000000        0x0 e:/apps/devkitpro/devkitppc/bin/../lib/gcc/powerpc-eabi/6.2.0/../../../../powerpc-eabi/lib\libc.a(lib_a-strtol.o)
 .bss           0x00000000        0x0 e:/apps/devkitpro/devkitppc/bin/../lib/gcc/powerpc-eabi/6.2.0/../../../../powerpc-eabi/lib\libc.a(lib_a-strtol.o)
 .text.strtol   0x00000000       0x18 e:/apps/devkitpro/devkitppc/bin/../lib/gcc/powerpc-eabi/6.2.0/../../../../powerpc-eabi/lib\libc.a(lib_a-strtol.o)
 .comment       0x00000000       0x23 e:/apps/devkitpro/devkitppc/bin/../lib/gcc/powerpc-eabi/6.2.0/../../../../powerpc-eabi/lib\libc.a(lib_a-strtol.o)
 .text          0x00000000        0x0 e:/apps/devkitpro/devkitppc/bin/../lib/gcc/powerpc-eabi/6.2.0/../../../../powerpc-eabi/lib\libc.a(lib_a-strtoull_r.o)
 .data          0x00000000        0x0 e:/apps/devkitpro/devkitppc/bin/../lib/gcc/powerpc-eabi/6.2.0/../../../../powerpc-eabi/lib\libc.a(lib_a-strtoull_r.o)
 .bss           0x00000000        0x0 e:/apps/devkitpro/devkitppc/bin/../lib/gcc/powerpc-eabi/6.2.0/../../../../powerpc-eabi/lib\libc.a(lib_a-strtoull_r.o)
 .comment       0x00000000       0x23 e:/apps/devkitpro/devkitppc/bin/../lib/gcc/powerpc-eabi/6.2.0/../../../../powerpc-eabi/lib\libc.a(lib_a-strtoull_r.o)
 .text          0x00000000        0x0 e:/apps/devkitpro/devkitppc/bin/../lib/gcc/powerpc-eabi/6.2.0/../../../../powerpc-eabi/lib\libc.a(lib_a-strtoul.o)
 .data          0x00000000        0x0 e:/apps/devkitpro/devkitppc/bin/../lib/gcc/powerpc-eabi/6.2.0/../../../../powerpc-eabi/lib\libc.a(lib_a-strtoul.o)
 .bss           0x00000000        0x0 e:/apps/devkitpro/devkitppc/bin/../lib/gcc/powerpc-eabi/6.2.0/../../../../powerpc-eabi/lib\libc.a(lib_a-strtoul.o)
 .text.strtoul  0x00000000       0x18 e:/apps/devkitpro/devkitppc/bin/../lib/gcc/powerpc-eabi/6.2.0/../../../../powerpc-eabi/lib\libc.a(lib_a-strtoul.o)
 .comment       0x00000000       0x23 e:/apps/devkitpro/devkitppc/bin/../lib/gcc/powerpc-eabi/6.2.0/../../../../powerpc-eabi/lib\libc.a(lib_a-strtoul.o)
 .text          0x00000000        0x0 e:/apps/devkitpro/devkitppc/bin/../lib/gcc/powerpc-eabi/6.2.0/../../../../powerpc-eabi/lib\libc.a(lib_a-svfiprintf.o)
 .data          0x00000000        0x0 e:/apps/devkitpro/devkitppc/bin/../lib/gcc/powerpc-eabi/6.2.0/../../../../powerpc-eabi/lib\libc.a(lib_a-svfiprintf.o)
 .bss           0x00000000        0x0 e:/apps/devkitpro/devkitppc/bin/../lib/gcc/powerpc-eabi/6.2.0/../../../../powerpc-eabi/lib\libc.a(lib_a-svfiprintf.o)
 .text._svfiprintf_r
                0x00000000     0x1634 e:/apps/devkitpro/devkitppc/bin/../lib/gcc/powerpc-eabi/6.2.0/../../../../powerpc-eabi/lib\libc.a(lib_a-svfiprintf.o)
 .rodata._svfiprintf_r
                0x00000000      0x164 e:/apps/devkitpro/devkitppc/bin/../lib/gcc/powerpc-eabi/6.2.0/../../../../powerpc-eabi/lib\libc.a(lib_a-svfiprintf.o)
 .rodata._svfiprintf_r.str1.4
                0x00000000       0x2f e:/apps/devkitpro/devkitppc/bin/../lib/gcc/powerpc-eabi/6.2.0/../../../../powerpc-eabi/lib\libc.a(lib_a-svfiprintf.o)
 .rodata.blanks.5040
                0x00000000       0x10 e:/apps/devkitpro/devkitppc/bin/../lib/gcc/powerpc-eabi/6.2.0/../../../../powerpc-eabi/lib\libc.a(lib_a-svfiprintf.o)
 .rodata.zeroes.5041
                0x00000000       0x10 e:/apps/devkitpro/devkitppc/bin/../lib/gcc/powerpc-eabi/6.2.0/../../../../powerpc-eabi/lib\libc.a(lib_a-svfiprintf.o)
 .comment       0x00000000       0x23 e:/apps/devkitpro/devkitppc/bin/../lib/gcc/powerpc-eabi/6.2.0/../../../../powerpc-eabi/lib\libc.a(lib_a-svfiprintf.o)
 .text          0x00000000        0x0 e:/apps/devkitpro/devkitppc/bin/../lib/gcc/powerpc-eabi/6.2.0/../../../../powerpc-eabi/lib\libc.a(lib_a-svfiscanf.o)
 .data          0x00000000        0x0 e:/apps/devkitpro/devkitppc/bin/../lib/gcc/powerpc-eabi/6.2.0/../../../../powerpc-eabi/lib\libc.a(lib_a-svfiscanf.o)
 .bss           0x00000000        0x0 e:/apps/devkitpro/devkitppc/bin/../lib/gcc/powerpc-eabi/6.2.0/../../../../powerpc-eabi/lib\libc.a(lib_a-svfiscanf.o)
 .text.__ssvfiscanf_r
                0x00000000      0xf78 e:/apps/devkitpro/devkitppc/bin/../lib/gcc/powerpc-eabi/6.2.0/../../../../powerpc-eabi/lib\libc.a(lib_a-svfiscanf.o)
 .rodata.__ssvfiscanf_r
                0x00000000      0x31c e:/apps/devkitpro/devkitppc/bin/../lib/gcc/powerpc-eabi/6.2.0/../../../../powerpc-eabi/lib\libc.a(lib_a-svfiscanf.o)
 .rodata.basefix.4507
                0x00000000       0x22 e:/apps/devkitpro/devkitppc/bin/../lib/gcc/powerpc-eabi/6.2.0/../../../../powerpc-eabi/lib\libc.a(lib_a-svfiscanf.o)
 .comment       0x00000000       0x23 e:/apps/devkitpro/devkitppc/bin/../lib/gcc/powerpc-eabi/6.2.0/../../../../powerpc-eabi/lib\libc.a(lib_a-svfiscanf.o)
 .text          0x00000000        0x0 e:/apps/devkitpro/devkitppc/bin/../lib/gcc/powerpc-eabi/6.2.0/../../../../powerpc-eabi/lib\libc.a(lib_a-ungetc.o)
 .data          0x00000000        0x0 e:/apps/devkitpro/devkitppc/bin/../lib/gcc/powerpc-eabi/6.2.0/../../../../powerpc-eabi/lib\libc.a(lib_a-ungetc.o)
 .bss           0x00000000        0x0 e:/apps/devkitpro/devkitppc/bin/../lib/gcc/powerpc-eabi/6.2.0/../../../../powerpc-eabi/lib\libc.a(lib_a-ungetc.o)
 .text._ungetc_r
                0x00000000      0x24c e:/apps/devkitpro/devkitppc/bin/../lib/gcc/powerpc-eabi/6.2.0/../../../../powerpc-eabi/lib\libc.a(lib_a-ungetc.o)
 .text.ungetc   0x00000000       0x14 e:/apps/devkitpro/devkitppc/bin/../lib/gcc/powerpc-eabi/6.2.0/../../../../powerpc-eabi/lib\libc.a(lib_a-ungetc.o)
 .comment       0x00000000       0x23 e:/apps/devkitpro/devkitppc/bin/../lib/gcc/powerpc-eabi/6.2.0/../../../../powerpc-eabi/lib\libc.a(lib_a-ungetc.o)
 .text          0x00000000        0x0 e:/apps/devkitpro/devkitppc/bin/../lib/gcc/powerpc-eabi/6.2.0/../../../../powerpc-eabi/lib\libc.a(lib_a-vfiprintf.o)
 .data          0x00000000        0x0 e:/apps/devkitpro/devkitppc/bin/../lib/gcc/powerpc-eabi/6.2.0/../../../../powerpc-eabi/lib\libc.a(lib_a-vfiprintf.o)
 .bss           0x00000000        0x0 e:/apps/devkitpro/devkitppc/bin/../lib/gcc/powerpc-eabi/6.2.0/../../../../powerpc-eabi/lib\libc.a(lib_a-vfiprintf.o)
 .text._vfiprintf_r
                0x00000000     0x172c e:/apps/devkitpro/devkitppc/bin/../lib/gcc/powerpc-eabi/6.2.0/../../../../powerpc-eabi/lib\libc.a(lib_a-vfiprintf.o)
 .rodata._vfiprintf_r
                0x00000000      0x164 e:/apps/devkitpro/devkitppc/bin/../lib/gcc/powerpc-eabi/6.2.0/../../../../powerpc-eabi/lib\libc.a(lib_a-vfiprintf.o)
 .text.vfiprintf
                0x00000000       0x18 e:/apps/devkitpro/devkitppc/bin/../lib/gcc/powerpc-eabi/6.2.0/../../../../powerpc-eabi/lib\libc.a(lib_a-vfiprintf.o)
 .text.__sbprintf
                0x00000000       0xf8 e:/apps/devkitpro/devkitppc/bin/../lib/gcc/powerpc-eabi/6.2.0/../../../../powerpc-eabi/lib\libc.a(lib_a-vfiprintf.o)
 .rodata._vfiprintf_r.str1.4
                0x00000000       0x2f e:/apps/devkitpro/devkitppc/bin/../lib/gcc/powerpc-eabi/6.2.0/../../../../powerpc-eabi/lib\libc.a(lib_a-vfiprintf.o)
 .rodata.blanks.5054
                0x00000000       0x10 e:/apps/devkitpro/devkitppc/bin/../lib/gcc/powerpc-eabi/6.2.0/../../../../powerpc-eabi/lib\libc.a(lib_a-vfiprintf.o)
 .rodata.zeroes.5055
                0x00000000       0x10 e:/apps/devkitpro/devkitppc/bin/../lib/gcc/powerpc-eabi/6.2.0/../../../../powerpc-eabi/lib\libc.a(lib_a-vfiprintf.o)
 .comment       0x00000000       0x23 e:/apps/devkitpro/devkitppc/bin/../lib/gcc/powerpc-eabi/6.2.0/../../../../powerpc-eabi/lib\libc.a(lib_a-vfiprintf.o)
 .text          0x00000000        0x0 e:/apps/devkitpro/devkitppc/bin/../lib/gcc/powerpc-eabi/6.2.0/../../../../powerpc-eabi/lib\libc.a(lib_a-wcsnrtombs.o)
 .data          0x00000000        0x0 e:/apps/devkitpro/devkitppc/bin/../lib/gcc/powerpc-eabi/6.2.0/../../../../powerpc-eabi/lib\libc.a(lib_a-wcsnrtombs.o)
 .bss           0x00000000        0x0 e:/apps/devkitpro/devkitppc/bin/../lib/gcc/powerpc-eabi/6.2.0/../../../../powerpc-eabi/lib\libc.a(lib_a-wcsnrtombs.o)
 .text.wcsnrtombs
                0x00000000       0x20 e:/apps/devkitpro/devkitppc/bin/../lib/gcc/powerpc-eabi/6.2.0/../../../../powerpc-eabi/lib\libc.a(lib_a-wcsnrtombs.o)
 .comment       0x00000000       0x23 e:/apps/devkitpro/devkitppc/bin/../lib/gcc/powerpc-eabi/6.2.0/../../../../powerpc-eabi/lib\libc.a(lib_a-wcsnrtombs.o)
 .text          0x00000000        0x0 e:/apps/devkitpro/devkitppc/bin/../lib/gcc/powerpc-eabi/6.2.0/../../../../powerpc-eabi/lib\libc.a(lib_a-fputwc.o)
 .data          0x00000000        0x0 e:/apps/devkitpro/devkitppc/bin/../lib/gcc/powerpc-eabi/6.2.0/../../../../powerpc-eabi/lib\libc.a(lib_a-fputwc.o)
 .bss           0x00000000        0x0 e:/apps/devkitpro/devkitppc/bin/../lib/gcc/powerpc-eabi/6.2.0/../../../../powerpc-eabi/lib\libc.a(lib_a-fputwc.o)
 .text.fputwc   0x00000000       0x6c e:/apps/devkitpro/devkitppc/bin/../lib/gcc/powerpc-eabi/6.2.0/../../../../powerpc-eabi/lib\libc.a(lib_a-fputwc.o)
 .comment       0x00000000       0x23 e:/apps/devkitpro/devkitppc/bin/../lib/gcc/powerpc-eabi/6.2.0/../../../../powerpc-eabi/lib\libc.a(lib_a-fputwc.o)
 .text          0x00000000        0x0 e:/apps/devkitpro/devkitppc/bin/../lib/gcc/powerpc-eabi/6.2.0/../../../../powerpc-eabi/lib\libc.a(lib_a-gdtoa-gethex.o)
 .data          0x00000000        0x0 e:/apps/devkitpro/devkitppc/bin/../lib/gcc/powerpc-eabi/6.2.0/../../../../powerpc-eabi/lib\libc.a(lib_a-gdtoa-gethex.o)
 .bss           0x00000000        0x0 e:/apps/devkitpro/devkitppc/bin/../lib/gcc/powerpc-eabi/6.2.0/../../../../powerpc-eabi/lib\libc.a(lib_a-gdtoa-gethex.o)
 .comment       0x00000000       0x23 e:/apps/devkitpro/devkitppc/bin/../lib/gcc/powerpc-eabi/6.2.0/../../../../powerpc-eabi/lib\libc.a(lib_a-gdtoa-gethex.o)
 .text          0x00000000        0x0 e:/apps/devkitpro/devkitppc/bin/../lib/gcc/powerpc-eabi/6.2.0/../../../../powerpc-eabi/lib\libc.a(lib_a-gdtoa-hexnan.o)
 .data          0x00000000        0x0 e:/apps/devkitpro/devkitppc/bin/../lib/gcc/powerpc-eabi/6.2.0/../../../../powerpc-eabi/lib\libc.a(lib_a-gdtoa-hexnan.o)
 .bss           0x00000000        0x0 e:/apps/devkitpro/devkitppc/bin/../lib/gcc/powerpc-eabi/6.2.0/../../../../powerpc-eabi/lib\libc.a(lib_a-gdtoa-hexnan.o)
 .comment       0x00000000       0x23 e:/apps/devkitpro/devkitppc/bin/../lib/gcc/powerpc-eabi/6.2.0/../../../../powerpc-eabi/lib\libc.a(lib_a-gdtoa-hexnan.o)
 .text          0x00000000        0x0 e:/apps/devkitpro/devkitppc/bin/../lib/gcc/powerpc-eabi/6.2.0/../../../../powerpc-eabi/lib\libc.a(lib_a-wbuf.o)
 .data          0x00000000        0x0 e:/apps/devkitpro/devkitppc/bin/../lib/gcc/powerpc-eabi/6.2.0/../../../../powerpc-eabi/lib\libc.a(lib_a-wbuf.o)
 .bss           0x00000000        0x0 e:/apps/devkitpro/devkitppc/bin/../lib/gcc/powerpc-eabi/6.2.0/../../../../powerpc-eabi/lib\libc.a(lib_a-wbuf.o)
 .text.__swbuf  0x00000000       0x14 e:/apps/devkitpro/devkitppc/bin/../lib/gcc/powerpc-eabi/6.2.0/../../../../powerpc-eabi/lib\libc.a(lib_a-wbuf.o)
 .comment       0x00000000       0x23 e:/apps/devkitpro/devkitppc/bin/../lib/gcc/powerpc-eabi/6.2.0/../../../../powerpc-eabi/lib\libc.a(lib_a-wbuf.o)
 .data          0x00000000        0x0 e:/apps/devkitpro/devkitppc/bin/../lib/gcc/powerpc-eabi/6.2.0/../../../../powerpc-eabi/lib\libsysbase.a(close.o)
 .bss           0x00000000        0x0 e:/apps/devkitpro/devkitppc/bin/../lib/gcc/powerpc-eabi/6.2.0/../../../../powerpc-eabi/lib\libsysbase.a(close.o)
 .comment       0x00000000       0x23 e:/apps/devkitpro/devkitppc/bin/../lib/gcc/powerpc-eabi/6.2.0/../../../../powerpc-eabi/lib\libsysbase.a(close.o)
 .data          0x00000000        0x0 e:/apps/devkitpro/devkitppc/bin/../lib/gcc/powerpc-eabi/6.2.0/../../../../powerpc-eabi/lib\libsysbase.a(fstat.o)
 .bss           0x00000000        0x0 e:/apps/devkitpro/devkitppc/bin/../lib/gcc/powerpc-eabi/6.2.0/../../../../powerpc-eabi/lib\libsysbase.a(fstat.o)
 .comment       0x00000000       0x23 e:/apps/devkitpro/devkitppc/bin/../lib/gcc/powerpc-eabi/6.2.0/../../../../powerpc-eabi/lib\libsysbase.a(fstat.o)
 .data          0x00000000        0x0 e:/apps/devkitpro/devkitppc/bin/../lib/gcc/powerpc-eabi/6.2.0/../../../../powerpc-eabi/lib\libsysbase.a(gettod.o)
 .bss           0x00000000        0x0 e:/apps/devkitpro/devkitppc/bin/../lib/gcc/powerpc-eabi/6.2.0/../../../../powerpc-eabi/lib\libsysbase.a(gettod.o)
 .comment       0x00000000       0x23 e:/apps/devkitpro/devkitppc/bin/../lib/gcc/powerpc-eabi/6.2.0/../../../../powerpc-eabi/lib\libsysbase.a(gettod.o)
 .data          0x00000000        0x0 e:/apps/devkitpro/devkitppc/bin/../lib/gcc/powerpc-eabi/6.2.0/../../../../powerpc-eabi/lib\libsysbase.a(isatty.o)
 .bss           0x00000000        0x0 e:/apps/devkitpro/devkitppc/bin/../lib/gcc/powerpc-eabi/6.2.0/../../../../powerpc-eabi/lib\libsysbase.a(isatty.o)
 .comment       0x00000000       0x23 e:/apps/devkitpro/devkitppc/bin/../lib/gcc/powerpc-eabi/6.2.0/../../../../powerpc-eabi/lib\libsysbase.a(isatty.o)
 .data          0x00000000        0x0 e:/apps/devkitpro/devkitppc/bin/../lib/gcc/powerpc-eabi/6.2.0/../../../../powerpc-eabi/lib\libsysbase.a(lseek.o)
 .bss           0x00000000        0x0 e:/apps/devkitpro/devkitppc/bin/../lib/gcc/powerpc-eabi/6.2.0/../../../../powerpc-eabi/lib\libsysbase.a(lseek.o)
 .comment       0x00000000       0x23 e:/apps/devkitpro/devkitppc/bin/../lib/gcc/powerpc-eabi/6.2.0/../../../../powerpc-eabi/lib\libsysbase.a(lseek.o)
 .data          0x00000000        0x0 e:/apps/devkitpro/devkitppc/bin/../lib/gcc/powerpc-eabi/6.2.0/../../../../powerpc-eabi/lib\libsysbase.a(open.o)
 .bss           0x00000000        0x0 e:/apps/devkitpro/devkitppc/bin/../lib/gcc/powerpc-eabi/6.2.0/../../../../powerpc-eabi/lib\libsysbase.a(open.o)
 .comment       0x00000000       0x23 e:/apps/devkitpro/devkitppc/bin/../lib/gcc/powerpc-eabi/6.2.0/../../../../powerpc-eabi/lib\libsysbase.a(open.o)
 .data          0x00000000        0x0 e:/apps/devkitpro/devkitppc/bin/../lib/gcc/powerpc-eabi/6.2.0/../../../../powerpc-eabi/lib\libsysbase.a(read.o)
 .bss           0x00000000        0x0 e:/apps/devkitpro/devkitppc/bin/../lib/gcc/powerpc-eabi/6.2.0/../../../../powerpc-eabi/lib\libsysbase.a(read.o)
 .comment       0x00000000       0x23 e:/apps/devkitpro/devkitppc/bin/../lib/gcc/powerpc-eabi/6.2.0/../../../../powerpc-eabi/lib\libsysbase.a(read.o)
 .data          0x00000000        0x0 e:/apps/devkitpro/devkitppc/bin/../lib/gcc/powerpc-eabi/6.2.0/../../../../powerpc-eabi/lib\libsysbase.a(stat.o)
 .bss           0x00000000        0x0 e:/apps/devkitpro/devkitppc/bin/../lib/gcc/powerpc-eabi/6.2.0/../../../../powerpc-eabi/lib\libsysbase.a(stat.o)
 .comment       0x00000000       0x23 e:/apps/devkitpro/devkitppc/bin/../lib/gcc/powerpc-eabi/6.2.0/../../../../powerpc-eabi/lib\libsysbase.a(stat.o)
 .data          0x00000000        0x0 e:/apps/devkitpro/devkitppc/bin/../lib/gcc/powerpc-eabi/6.2.0/../../../../powerpc-eabi/lib\libsysbase.a(write.o)
 .bss           0x00000000        0x0 e:/apps/devkitpro/devkitppc/bin/../lib/gcc/powerpc-eabi/6.2.0/../../../../powerpc-eabi/lib\libsysbase.a(write.o)
 .comment       0x00000000       0x23 e:/apps/devkitpro/devkitppc/bin/../lib/gcc/powerpc-eabi/6.2.0/../../../../powerpc-eabi/lib\libsysbase.a(write.o)
 .data          0x00000000        0x0 e:/apps/devkitpro/devkitppc/bin/../lib/gcc/powerpc-eabi/6.2.0/../../../../powerpc-eabi/lib\libsysbase.a(flock.o)
 .bss           0x00000000        0x0 e:/apps/devkitpro/devkitppc/bin/../lib/gcc/powerpc-eabi/6.2.0/../../../../powerpc-eabi/lib\libsysbase.a(flock.o)
 .comment       0x00000000       0x23 e:/apps/devkitpro/devkitppc/bin/../lib/gcc/powerpc-eabi/6.2.0/../../../../powerpc-eabi/lib\libsysbase.a(flock.o)
 .data          0x00000000        0x0 e:/apps/devkitpro/devkitppc/bin/../lib/gcc/powerpc-eabi/6.2.0/../../../../powerpc-eabi/lib\libsysbase.a(syscall_support.o)
 .comment       0x00000000       0x23 e:/apps/devkitpro/devkitppc/bin/../lib/gcc/powerpc-eabi/6.2.0/../../../../powerpc-eabi/lib\libsysbase.a(syscall_support.o)
 .data          0x00000000        0x0 e:/apps/devkitpro/devkitppc/bin/../lib/gcc/powerpc-eabi/6.2.0/../../../../powerpc-eabi/lib\libsysbase.a(handle_manager.o)
 .comment       0x00000000       0x23 e:/apps/devkitpro/devkitppc/bin/../lib/gcc/powerpc-eabi/6.2.0/../../../../powerpc-eabi/lib\libsysbase.a(handle_manager.o)
 .data          0x00000000        0x0 e:/apps/devkitpro/devkitppc/bin/../lib/gcc/powerpc-eabi/6.2.0\libgcc.a(_udivdi3.o)
 .bss           0x00000000        0x0 e:/apps/devkitpro/devkitppc/bin/../lib/gcc/powerpc-eabi/6.2.0\libgcc.a(_udivdi3.o)
 .comment       0x00000000       0x23 e:/apps/devkitpro/devkitppc/bin/../lib/gcc/powerpc-eabi/6.2.0\libgcc.a(_udivdi3.o)
 .eh_frame      0x00000000       0x50 e:/apps/devkitpro/devkitppc/bin/../lib/gcc/powerpc-eabi/6.2.0\libgcc.a(_udivdi3.o)
 .data          0x00000000        0x0 e:/apps/devkitpro/devkitppc/bin/../lib/gcc/powerpc-eabi/6.2.0\libgcc.a(_umoddi3.o)
 .bss           0x00000000        0x0 e:/apps/devkitpro/devkitppc/bin/../lib/gcc/powerpc-eabi/6.2.0\libgcc.a(_umoddi3.o)
 .comment       0x00000000       0x23 e:/apps/devkitpro/devkitppc/bin/../lib/gcc/powerpc-eabi/6.2.0\libgcc.a(_umoddi3.o)
 .eh_frame      0x00000000       0x58 e:/apps/devkitpro/devkitppc/bin/../lib/gcc/powerpc-eabi/6.2.0\libgcc.a(_umoddi3.o)

Memory Configuration

Name             Origin             Length             Attributes
*default*        0x00000000         0xffffffff

Linker script and memory map

LOAD entry.o
LOAD exploit.o
LOAD main.o
LOAD acp_functions.o
LOAD aoc_functions.o
LOAD ax_functions.o
LOAD fs_functions.o
LOAD gx2_functions.o
LOAD os_functions.o
LOAD padscore_functions.o
LOAD socket_functions.o
LOAD sys_functions.o
LOAD syshid_functions.o
LOAD vpad_functions.o
LOAD memory.o
LOAD animalcrossing.zip.o
LOAD bigbrainacademy.zip.o
LOAD brainage.zip.o
LOAD dkjclimber.zip.o
LOAD explorersofsky.zip.o
LOAD guardiansigns.zip.o
LOAD kirby.zip.o
LOAD kirbycanvascurse.zip.o
LOAD kirbymassattack.zip.o
LOAD mariokartds.zip.o
LOAD masterofdisguise.zip.o
LOAD newsmb.zip.o
LOAD newsmb_eur.zip.o
LOAD partnersintime.zip.o
LOAD pokemonranger.zip.o
LOAD sfcommand.zip.o
LOAD shadowsofalmia.zip.o
LOAD sm64ds.zip.o
LOAD wwtouched.zip.o
LOAD yoshids.zip.o
LOAD yoshitouchandgo.zip.o
LOAD zeldaph.zip.o
LOAD zeldast.zip.o
LOAD e:/Apps/devkitPro/portlibs/ppc/lib\libiosuhax.a
LOAD e:/Apps/devkitPro/libwiiu/examples/haxchi/installer/libxml2/lib\libxml2.a
LOAD e:/apps/devkitpro/devkitppc/bin/../lib/gcc/powerpc-eabi/6.2.0/../../../../powerpc-eabi/lib\libm.a
LOAD e:/apps/devkitpro/devkitppc/bin/../lib/gcc/powerpc-eabi/6.2.0\libgcc.a
START GROUP
LOAD e:/apps/devkitpro/devkitppc/bin/../lib/gcc/powerpc-eabi/6.2.0/../../../../powerpc-eabi/lib\libsysbase.a
LOAD e:/apps/devkitpro/devkitppc/bin/../lib/gcc/powerpc-eabi/6.2.0/../../../../powerpc-eabi/lib\libc.a
END GROUP
LOAD e:/apps/devkitpro/devkitppc/bin/../lib/gcc/powerpc-eabi/6.2.0\libgcc.a
                0x00802000                . = 0x802000

.text           0x00802000    0x5d76c
 *(.text*)
 .text.__entry_menu
                0x00802000        0x4 entry.o
                0x00802000                __entry_menu
 .text.uhs_exploit_init
                0x00802004      0x148 exploit.o
                0x00802004                uhs_exploit_init
 .text.IOSUExploit
                0x0080214c      0x240 exploit.o
                0x0080214c                IOSUExploit
 .text.someFunc
                0x0080238c        0x4 main.o
                0x0080238c                someFunc
 .text.availSort
                0x00802390        0xc main.o
                0x00802390                availSort
 .text.println  0x0080239c       0xc0 main.o
                0x0080239c                println
 .text.fsa_write
                0x0080245c       0xc0 main.o
                0x0080245c                fsa_write
 .text.Menu_Main
                0x0080251c     0x2b04 main.o
                0x0080251c                Menu_Main
 .text.InitOSFunctionPointers
                0x00805020     0x1720 os_functions.o
                0x00805020                InitOSFunctionPointers
 .text.InitSysFunctionPointers
                0x00806740      0x2a8 sys_functions.o
                0x00806740                InitSysFunctionPointers
 .text.InitVPadFunctionPointers
                0x008069e8      0x2c0 vpad_functions.o
                0x008069e8                InitVPadFunctionPointers
 .text.memoryInitialize
                0x00806ca8      0x120 memory.o
                0x00806ca8                memoryInitialize
 .text.memoryRelease
                0x00806dc8       0xcc memory.o
                0x00806dc8                memoryRelease
 .text.__wrap_malloc
                0x00806e94       0x14 memory.o
                0x00806e94                __wrap_malloc
 .text.__wrap_memalign
                0x00806ea8       0x2c memory.o
                0x00806ea8                __wrap_memalign
 .text.__wrap_free
                0x00806ed4       0x1c memory.o
                0x00806ed4                __wrap_free
 .text.__wrap_realloc
                0x00806ef0       0x9c memory.o
                0x00806ef0                __wrap_realloc
 .text.__wrap__malloc_r
                0x00806f8c       0x18 memory.o
                0x00806f8c                __wrap__malloc_r
 .text.__wrap__calloc_r
                0x00806fa4       0x60 memory.o
                0x00806fa4                __wrap__calloc_r
 .text.__wrap__free_r
                0x00807004       0x1c memory.o
                0x00807004                __wrap__free_r
 .text.__wrap__realloc_r
                0x00807020       0x9c memory.o
                0x00807020                __wrap__realloc_r
 .text.MEMBucket_alloc
                0x008070bc       0x2c memory.o
                0x008070bc                MEMBucket_alloc
 .text.MEMBucket_free
                0x008070e8       0x1c memory.o
                0x008070e8                MEMBucket_free
 .text.IOSUHAX_Open
                0x00807104       0xe8 e:/Apps/devkitPro/portlibs/ppc/lib\libiosuhax.a(iosuhax.o)
                0x00807104                IOSUHAX_Open
 .text.IOSUHAX_Close
                0x008071ec       0x54 e:/Apps/devkitPro/portlibs/ppc/lib\libiosuhax.a(iosuhax.o)
                0x008071ec                IOSUHAX_Close
 .text.IOSUHAX_FSA_Open
                0x00807240       0x5c e:/Apps/devkitPro/portlibs/ppc/lib\libiosuhax.a(iosuhax.o)
                0x00807240                IOSUHAX_FSA_Open
 .text.IOSUHAX_FSA_Close
                0x0080729c       0x68 e:/Apps/devkitPro/portlibs/ppc/lib\libiosuhax.a(iosuhax.o)
                0x0080729c                IOSUHAX_FSA_Close
 .text.IOSUHAX_FSA_Mount
                0x00807304      0x220 e:/Apps/devkitPro/portlibs/ppc/lib\libiosuhax.a(iosuhax.o)
                0x00807304                IOSUHAX_FSA_Mount
 .text.IOSUHAX_FSA_Unmount
                0x00807524      0x11c e:/Apps/devkitPro/portlibs/ppc/lib\libiosuhax.a(iosuhax.o)
                0x00807524                IOSUHAX_FSA_Unmount
 .text.IOSUHAX_FSA_FlushVolume
                0x00807640      0x108 e:/Apps/devkitPro/portlibs/ppc/lib\libiosuhax.a(iosuhax.o)
                0x00807640                IOSUHAX_FSA_FlushVolume
 .text.IOSUHAX_FSA_OpenFile
                0x00807748      0x15c e:/Apps/devkitPro/portlibs/ppc/lib\libiosuhax.a(iosuhax.o)
                0x00807748                IOSUHAX_FSA_OpenFile
 .text.IOSUHAX_FSA_ReadFile
                0x008078a4      0x18c e:/Apps/devkitPro/portlibs/ppc/lib\libiosuhax.a(iosuhax.o)
                0x008078a4                IOSUHAX_FSA_ReadFile
 .text.IOSUHAX_FSA_WriteFile
                0x00807a30      0x160 e:/Apps/devkitPro/portlibs/ppc/lib\libiosuhax.a(iosuhax.o)
                0x00807a30                IOSUHAX_FSA_WriteFile
 .text.IOSUHAX_FSA_StatFile
                0x00807b90      0x100 e:/Apps/devkitPro/portlibs/ppc/lib\libiosuhax.a(iosuhax.o)
                0x00807b90                IOSUHAX_FSA_StatFile
 .text.IOSUHAX_FSA_CloseFile
                0x00807c90       0xe0 e:/Apps/devkitPro/portlibs/ppc/lib\libiosuhax.a(iosuhax.o)
                0x00807c90                IOSUHAX_FSA_CloseFile
 .text          0x00807d70    0x1731c e:/Apps/devkitPro/libwiiu/examples/haxchi/installer/libxml2/lib\libxml2.a(parser.o)
                0x00809ef0                xmlHasFeature
                0x00809f00                xmlCheckLanguageID
                0x0080a1bc                inputPush
                0x0080a3ec                inputPop
                0x0080a460                nodePush
                0x0080a568                nodePop
                0x0080a5dc                namePush
                0x0080a690                namePop
                0x0080a704                xmlPopInput
                0x0080aa0c                xmlPushInput
                0x0080ab50                xmlSplitQName
                0x0080b074                xmlParsePubidLiteral
                0x0080b430                xmlParseVersionNum
                0x0080b670                xmlParseEncName
                0x0080b8b8                xmlParseEncodingDecl
                0x0080bc28                xmlParseTextDecl
                0x0080bf74                xmlParserHandlePEReference
                0x0080c39c                xmlSkipBlankChars
                0x0080c5d4                xmlParseCharRef
                0x0080ca6c                xmlStringLenDecodeEntities
                0x0080dbc4                xmlStringDecodeEntities
                0x0080df88                xmlParseName
                0x0080e8e4                xmlParsePITarget
                0x0080ea38                xmlParseNotationType
                0x0080f4d0                xmlParseElementChildrenContentDecl
                0x0080f4d8                xmlParseEntityRef
                0x0080f994                xmlParseNmtoken
                0x0080fe84                xmlParseEnumerationType
                0x00810124                xmlParseEntityValue
                0x0081179c                xmlParseAttValue
                0x008117c8                xmlParseSystemLiteral
                0x00812190                xmlParseCharData
                0x00812710                xmlParseExternalID
                0x00812af8                xmlParseComment
                0x00813758                xmlParsePI
                0x00813e74                xmlParseNotationDecl
                0x008141a4                xmlParseEntityDecl
                0x00814b60                xmlParseDefaultDecl
                0x00814e7c                xmlParseEnumeratedType
                0x0081500c                xmlParseAttributeType
                0x008155d0                xmlParseAttributeListDecl
                0x00815e38                xmlParseElementMixedContentDecl
                0x008162c4                xmlParseElementContentDecl
                0x00816430                xmlParseElementDecl
                0x00816940                xmlParseDocTypeDecl
                0x00816aec                xmlParseCDSect
                0x0081780c                xmlParseVersionInfo
                0x00817cb4                xmlParsePEReference
                0x00817ccc                xmlParseMarkupDecl
                0x00818730                xmlParseExternalSubset
                0x00818af8                xmlParseSDDecl
                0x00818f4c                xmlParseXMLDecl
                0x008193e8                xmlParseMisc
                0x008194a8                xmlStopParser
                0x008194e0                xmlCreateIOParserCtxt
                0x008196b0                xmlCreateEntityParserCtxt
                0x008196b8                xmlCreateURLParserCtxt
                0x008197ac                xmlCreateFileParserCtxt
                0x008197b4                xmlCreateMemoryParserCtxt
                0x00819d48                xmlParseReference
                0x0081a690                xmlParseContent
                0x0081aea4                xmlParseElement
                0x0081cb18                xmlParseDocument
                0x0081d3c0                xmlParseExtParsedEnt
                0x0081d6b0                xmlParseCtxtExternalEntity
                0x0081dc2c                xmlParseInNodeContext
                0x0081e090                xmlCreateDocParserCtxt
                0x0081e0dc                xmlInitParser
                0x0081e0f0                xmlCleanupParser
                0x0081e14c                xmlCtxtReset
                0x0081e49c                xmlCtxtResetPush
                0x0081e754                xmlCtxtUseOptions
                0x0081e75c                xmlReadDoc
                0x0081e808                xmlReadFile
                0x0081e894                xmlReadMemory
                0x0081e934                xmlReadFd
                0x0081ea4c                xmlReadIO
                0x0081eb90                xmlCtxtReadDoc
                0x0081ec6c                xmlCtxtReadFile
                0x0081ed3c                xmlCtxtReadMemory
                0x0081ee4c                xmlCtxtReadFd
                0x0081ef50                xmlCtxtReadIO
 .text.unlikely
                0x0081f08c       0x98 e:/Apps/devkitPro/libwiiu/examples/haxchi/installer/libxml2/lib\libxml2.a(parser.o)
 .text          0x0081f124     0xa9a8 e:/Apps/devkitPro/libwiiu/examples/haxchi/installer/libxml2/lib\libxml2.a(tree.o)
                0x0081faf8                xmlBuildQName
                0x0081fc1c                xmlSplitQName2
                0x0081fd40                xmlSplitQName3
                0x0081fda0                xmlSetBufferAllocationScheme
                0x0081fdbc                xmlGetBufferAllocationScheme
                0x0081fdc8                xmlSetNs
                0x0081fde8                xmlFreeNs
                0x0081fe74                xmlNewNs
                0x008206ec                xmlFreeNsList
                0x00820730                xmlNewDtd
                0x00820874                xmlGetIntSubset
                0x008208c4                xmlCreateIntSubset
                0x00820bfc                xmlNewDoc
                0x00820d30                xmlNodeListGetString
                0x00820fb4                xmlNewDocPI
                0x008210d4                xmlNewPI
                0x008210e4                xmlNewNode
                0x008211bc                xmlNewNodeEatName
                0x0082128c                xmlNewText
                0x0082165c                xmlNewNsPropEatName
                0x008216e8                xmlNewNsProp
                0x00821714                xmlNewCharRef
                0x00821838                xmlNewReference
                0x00821990                xmlNewDocText
                0x008219cc                xmlNewTextLen
                0x00821aac                xmlNewDocTextLen
                0x00821af0                xmlNewComment
                0x00821bc0                xmlNewCDataBlock
                0x00821ca4                xmlNewDocComment
                0x00821ce0                xmlSetListDoc
                0x00821d48                xmlSetTreeDoc
                0x00821e08                xmlGetLastChild
                0x00821e2c                xmlUnlinkNode
                0x0082203c                xmlFreeDtd
                0x00822268                xmlFreeDoc
                0x00822558                xmlFreeNodeList
                0x008227dc                xmlFreeProp
                0x00822930                xmlFreePropList
                0x00822974                xmlRemoveProp
                0x00822b9c                xmlFreeNode
                0x00822f60                xmlCopyNamespace
                0x00822f8c                xmlCopyNamespaceList
                0x0082301c                xmlGetLineNo
                0x00823024                xmlDocGetRootElement
                0x00823070                xmlBufGetNodeContent
                0x00823298                xmlNodeBufGetContent
                0x00823308                xmlNodeGetContent
                0x00823430                xmlTextMerge
                0x008234d8                xmlNodeAddContentLen
                0x0082363c                xmlNodeAddContent
                0x008236a8                xmlAddChild
                0x0082395c                xmlAddNextSibling
                0x00823b40                xmlStringGetNodeList
                0x0082402c                xmlNewDocProp
                0x00824194                xmlNewDocNode
                0x00824280                xmlNewDocNodeEatName
                0x00824384                xmlNodeSetContent
                0x008244fc                xmlStringLenGetNodeList
                0x00824ad8                xmlAddSibling
                0x00824c78                xmlAddChildList
                0x00824de0                xmlSearchNs
                0x00825084                xmlSearchNsByHref
                0x00825d68                xmlCopyProp
                0x00825d78                xmlCopyPropList
                0x00825e58                xmlDocCopyNodeList
                0x00825e6c                xmlCopyNodeList
                0x00825e78                xmlCopyNode
                0x00825e88                xmlDocCopyNode
                0x00825e94                xmlHasProp
                0x00825fac                xmlHasNsProp
                0x00825fb0                xmlGetProp
                0x00825fe8                xmlGetNoNsProp
                0x00826024                xmlGetNsProp
                0x0082605c                xmlNodeGetLang
                0x008260dc                xmlNodeGetSpacePreserve
                0x0082625c                xmlNodeGetBase
                0x008265e8                xmlNodeIsText
                0x0082660c                xmlIsBlankNode
                0x00826684                xmlTextConcat
                0x00826768                xmlBufferCreate
                0x00826850                xmlBufferCreateSize
                0x00826964                xmlBufferDetach
                0x00826998                xmlBufferCreateStatic
                0x00826a40                xmlBufferSetAllocationScheme
                0x00826a70                xmlBufferFree
                0x00826b60                xmlBufferEmpty
                0x00826bd4                xmlBufferShrink
                0x00826cf4                xmlBufferGrow
                0x00826e4c                xmlBufferDump
                0x00826e98                xmlBufferContent
                0x00826eb0                xmlBufferLength
                0x00826ec8                xmlBufferResize
                0x00827248                xmlBufferAdd
                0x00827288                xmlBufferAddHead
                0x00827410                xmlBufferCat
                0x0082743c                xmlBufferCCat
                0x00827554                xmlBufferWriteCHAR
                0x0082756c                xmlBufferWriteChar
                0x00827584                xmlBufferWriteQuotedString
                0x00827740                xmlGetDocCompressMode
                0x00827758                xmlSetDocCompressMode
                0x00827790                xmlGetCompressMode
                0x0082779c                xmlSetCompressMode
                0x008277d8                xmlDOMWrapNewCtxt
                0x00827850                xmlDOMWrapFreeCtxt
                0x008278b0                xmlDOMWrapRemoveNode
                0x00827b70                xmlDOMWrapReconcileNamespaces
                0x00828208                xmlDOMWrapCloneNode
                0x00828bf8                xmlDOMWrapAdoptNode
 .text          0x00829acc     0x1904 e:/Apps/devkitPro/libwiiu/examples/haxchi/installer/libxml2/lib\libxml2.a(hash.o)
                0x00829bb0                xmlHashCreate
                0x00829c7c                xmlHashCreateDict
                0x00829cc8                xmlHashFree
                0x00829f04                xmlHashAddEntry3
                0x0082a4f4                xmlHashAddEntry
                0x0082a504                xmlHashAddEntry2
                0x0082a510                xmlHashUpdateEntry3
                0x0082a8c4                xmlHashUpdateEntry
                0x0082a8d8                xmlHashUpdateEntry2
                0x0082a8e8                xmlHashLookup3
                0x0082aa24                xmlHashLookup
                0x0082aa30                xmlHashLookup2
                0x0082aa38                xmlHashQLookup3
                0x0082ad04                xmlHashQLookup
                0x0082ad18                xmlHashQLookup2
                0x0082ad24                xmlHashScanFull
                0x0082ae78                xmlHashScan
                0x0082aeb0                xmlHashScanFull3
                0x0082b034                xmlHashScan3
                0x0082b038                xmlHashCopy
                0x0082b170                xmlHashSize
                0x0082b188                xmlHashRemoveEntry3
                0x0082b3b4                xmlHashRemoveEntry
                0x0082b3c4                xmlHashRemoveEntry2
 .text          0x0082b3d0     0x3188 e:/Apps/devkitPro/libwiiu/examples/haxchi/installer/libxml2/lib\libxml2.a(xmlIO.o)
                0x0082b3d0                xmlNop
                0x0082b3d8                xmlFileMatch
                0x0082b6e0                __xmlIOErr
                0x0082bdb8                xmlFileRead
                0x0082be38                xmlFileClose
                0x0082c20c                __xmlLoaderErr
                0x0082c310                xmlNormalizeWindowsPath
                0x0082c314                xmlCleanupInputCallbacks
                0x0082c380                xmlPopInputCallbacks
                0x0082c3d0                xmlCleanupOutputCallbacks
                0x0082c43c                xmlCheckFilename
                0x0082c5c0                xmlFileOpen
                0x0082c638                xmlRegisterInputCallbacks
                0x0082c684                xmlRegisterOutputCallbacks
                0x0082c6d0                xmlRegisterDefaultInputCallbacks
                0x0082c6e4                xmlRegisterDefaultOutputCallbacks
                0x0082c6f8                xmlAllocParserInputBuffer
                0x0082c804                __xmlParserInputBufferCreateFilename
                0x0082c95c                xmlAllocOutputBuffer
                0x0082ca80                xmlAllocOutputBufferInternal
                0x0082cb90                __xmlOutputBufferCreateFilename
                0x0082cdcc                xmlFreeParserInputBuffer
                0x0082ce74                xmlParserInputBufferCreateFilename
                0x0082ce90                xmlOutputBufferCreateFilename
                0x0082ceac                xmlParserInputBufferCreateFile
                0x0082cf30                xmlOutputBufferCreateFile
                0x0082cfb4                xmlOutputBufferCreateBuffer
                0x0082d010                xmlOutputBufferGetContent
                0x0082d030                xmlOutputBufferGetSize
                0x0082d050                xmlParserInputBufferCreateFd
                0x0082d0b0                xmlParserInputBufferCreateMem
                0x0082d174                xmlParserInputBufferCreateStatic
                0x0082d298                xmlOutputBufferCreateFd
                0x0082d2f4                xmlParserInputBufferCreateIO
                0x0082d35c                xmlOutputBufferCreateIO
                0x0082d3c4                xmlParserInputBufferCreateFilenameDefault
                0x0082d3f4                xmlOutputBufferCreateFilenameDefault
                0x0082d424                xmlParserInputBufferPush
                0x0082d56c                xmlParserInputBufferGrow
                0x0082d778                xmlParserInputBufferRead
                0x0082d7d4                xmlOutputBufferWrite
                0x0082daa8                xmlOutputBufferWriteEscape
                0x0082de1c                xmlOutputBufferWriteString
                0x0082dea0                xmlOutputBufferFlush
                0x0082e074                xmlOutputBufferClose
                0x0082e17c                xmlParserGetDirectory
                0x0082e298                xmlCheckHTTPInput
                0x0082e2a0                xmlSetExternalEntityLoader
                0x0082e2ac                xmlGetExternalEntityLoader
                0x0082e2b8                xmlLoadExternalEntity
                0x0082e3f4                xmlNoNetExternalEntityLoader
 .text          0x0082e558      0xf38 e:/Apps/devkitPro/libwiiu/examples/haxchi/installer/libxml2/lib\libxml2.a(xmlmemory.o)
                0x0082e558                xmlMallocBreakpoint
                0x0082e584                xmlMemFree
                0x0082e7a0                xmlMemUsed
                0x0082e7ec                xmlMemBlocks
                0x0082e838                xmlMemDisplayLast
                0x0082e8d0                xmlMemDisplay
                0x0082e95c                xmlMemShow
                0x0082e984                xmlMemoryDump
                0x0082e988                xmlInitMemory
                0x0082ea34                xmlMallocLoc
                0x0082ebfc                xmlMemMalloc
                0x0082ec0c                xmlMallocAtomicLoc
                0x0082ee24                xmlReallocLoc
                0x0082f0e4                xmlMemRealloc
                0x0082f0f4                xmlMemStrdupLoc
                0x0082f2b8                xmlMemoryStrdup
                0x0082f2c8                xmlCleanupMemory
                0x0082f314                xmlMemSetup
                0x0082f36c                xmlMemGet
                0x0082f3c4                xmlGcMemSetup
                0x0082f424                xmlGcMemGet
 .text          0x0082f490     0x3f94 e:/Apps/devkitPro/libwiiu/examples/haxchi/installer/libxml2/lib\libxml2.a(uri.o)
                0x0082f97c                xmlCreateURI
                0x0082f9dc                xmlSaveUri
                0x008305c8                xmlPrintURI
                0x00830638                xmlFreeURI
                0x0083076c                xmlNormalizeURIPath
                0x00830a7c                xmlURIUnescapeString
                0x00831eb8                xmlParseURI
                0x00831f34                xmlParseURIReference
                0x00831f38                xmlParseURIRaw
                0x00831fe0                xmlURIEscapeStr
                0x00832274                xmlURIEscape
                0x00832624                xmlBuildURI
                0x00832cc4                xmlBuildRelativeURI
                0x00833254                xmlCanonicPath
                0x00833368                xmlPathToURI
 .text.unlikely
                0x00833424       0x98 e:/Apps/devkitPro/libwiiu/examples/haxchi/installer/libxml2/lib\libxml2.a(uri.o)
 .text          0x008334bc     0x33bc e:/Apps/devkitPro/libwiiu/examples/haxchi/installer/libxml2/lib\libxml2.a(valid.o)
                0x00833c7c                xmlNewDocElementContent
                0x00833ec4                xmlNewElementContent
                0x00833ed4                xmlCopyDocElementContent
                0x008341e0                xmlCopyElementContent
                0x008341ec                xmlFreeDocElementContent
                0x00834440                xmlFreeElementContent
                0x0083444c                xmlSprintfElementContent
                0x00834450                xmlSnprintfElementContent
                0x008347bc                xmlAddElementDecl
                0x00834c04                xmlFreeElementTable
                0x00834c10                xmlDumpElementDecl
                0x00834df4                xmlDumpElementTable
                0x00834e14                xmlCreateEnumeration
                0x00834e94                xmlFreeEnumeration
                0x00835110                xmlAddAttributeDecl
                0x008355c8                xmlFreeAttributeTable
                0x008355d4                xmlDumpAttributeDecl
                0x0083585c                xmlDumpAttributeTable
                0x0083587c                xmlAddNotationDecl
                0x00835a00                xmlFreeNotationTable
                0x00835a0c                xmlDumpNotationDecl
                0x00835af4                xmlDumpNotationTable
                0x00835b14                xmlAddID
                0x00835ca4                xmlFreeIDTable
                0x00835cb0                xmlRemoveID
                0x00835da8                xmlGetID
                0x00835e10                xmlAddRef
                0x00836040                xmlFreeRefTable
                0x0083604c                xmlRemoveRef
                0x00836150                xmlGetRefs
                0x00836178                xmlGetDtdElementDesc
                0x00836268                xmlGetDtdQElementDesc
                0x00836288                xmlGetDtdAttrDesc
                0x00836388                xmlIsID
                0x0083667c                xmlIsRef
                0x00836778                xmlGetDtdQAttrDesc
                0x008367a8                xmlGetDtdNotationDesc
                0x008367c8                xmlIsMixedElement
 .text          0x00836878      0xbac e:/Apps/devkitPro/libwiiu/examples/haxchi/installer/libxml2/lib\libxml2.a(globals.o)
                0x00836878                xmlInitGlobals
                0x008368c8                xmlCleanupGlobals
                0x00836908                xmlInitializeGlobalState
                0x00836aa8                xmlThrDefSetGenericErrorFunc
                0x00836b3c                xmlThrDefSetStructuredErrorFunc
                0x00836b94                xmlRegisterNodeDefault
                0x00836bb4                xmlThrDefRegisterNodeDefault
                0x00836c24                xmlDeregisterNodeDefault
                0x00836c44                xmlThrDefDeregisterNodeDefault
                0x00836cb4                xmlThrDefParserInputBufferCreateFilenameDefault
                0x00836d58                xmlThrDefOutputBufferCreateFilenameDefault
                0x00836dfc                __xmlLastError
                0x00836e08                __oldXMLWDcompatibility
                0x00836e14                __xmlBufferAllocScheme
                0x00836e20                xmlThrDefBufferAllocScheme
                0x00836e7c                __xmlDefaultBufferSize
                0x00836e88                xmlThrDefDefaultBufferSize
                0x00836ee8                __xmlDefaultSAXLocator
                0x00836ef8                __xmlDoValidityCheckingDefaultValue
                0x00836f04                xmlThrDefDoValidityCheckingDefaultValue
                0x00836f68                __xmlGenericError
                0x00836f74                __xmlStructuredError
                0x00836f80                __xmlGenericErrorContext
                0x00836f8c                __xmlStructuredErrorContext
                0x00836f98                __xmlGetWarningsDefaultValue
                0x00836fa4                xmlThrDefGetWarningsDefaultValue
                0x00837004                __xmlIndentTreeOutput
                0x00837010                xmlThrDefIndentTreeOutput
                0x00837070                __xmlTreeIndentString
                0x0083707c                xmlThrDefTreeIndentString
                0x008370dc                __xmlKeepBlanksDefaultValue
                0x008370e8                xmlThrDefKeepBlanksDefaultValue
                0x00837148                __xmlLineNumbersDefaultValue
                0x00837154                xmlThrDefLineNumbersDefaultValue
                0x008371b8                __xmlLoadExtDtdDefaultValue
                0x008371c4                xmlThrDefLoadExtDtdDefaultValue
                0x00837228                __xmlParserDebugEntities
                0x00837234                xmlThrDefParserDebugEntities
                0x00837298                __xmlParserVersion
                0x008372a4                __xmlPedanticParserDefaultValue
                0x008372b0                xmlThrDefPedanticParserDefaultValue
                0x00837314                __xmlSaveNoEmptyTags
                0x00837320                xmlThrDefSaveNoEmptyTags
                0x00837384                __xmlSubstituteEntitiesDefaultValue
                0x00837390                xmlThrDefSubstituteEntitiesDefaultValue
                0x008373f4                __xmlRegisterNodeDefaultValue
                0x00837400                __xmlDeregisterNodeDefaultValue
                0x0083740c                __xmlParserInputBufferCreateFilenameValue
                0x00837418                __xmlOutputBufferCreateFilenameValue
 .text          0x00837424       0x6c e:/Apps/devkitPro/libwiiu/examples/haxchi/installer/libxml2/lib\libxml2.a(threads.o)
                0x00837424                xmlNewMutex
                0x0083742c                xmlFreeMutex
                0x00837438                xmlMutexLock
                0x0083743c                xmlMutexUnlock
                0x00837440                xmlNewRMutex
                0x00837448                xmlFreeRMutex
                0x00837454                xmlRMutexLock
                0x00837458                xmlRMutexUnlock
                0x0083745c                __xmlGlobalInitMutexLock
                0x00837460                __xmlGlobalInitMutexUnlock
                0x00837464                __xmlGlobalInitMutexDestroy
                0x00837468                xmlGetGlobalState
                0x00837470                xmlGetThreadId
                0x00837478                xmlIsMainThread
                0x00837480                xmlLockLibrary
                0x00837484                xmlUnlockLibrary
                0x00837488                xmlInitThreads
                0x0083748c                xmlCleanupThreads
 .text          0x00837490     0x13e4 e:/Apps/devkitPro/libwiiu/examples/haxchi/installer/libxml2/lib\libxml2.a(xmlstring.o)
                0x00837490                xmlStrndup
                0x0083753c                xmlStrdup
                0x00837574                xmlCharStrndup
                0x00837684                xmlCharStrdup
                0x008376bc                xmlStrcmp
                0x0083771c                xmlStrEqual
                0x00837768                xmlStrQEqual
                0x00837834                xmlStrncmp
                0x00837870                xmlStrcasecmp
                0x008378d4                xmlStrncasecmp
                0x00837950                xmlStrchr
                0x00837990                xmlStrstr
                0x00837a68                xmlStrcasestr
                0x00837b5c                xmlStrsub
                0x00837bbc                xmlStrlen
                0x00837bf4                xmlStrncat
                0x00837d44                xmlStrncatNew
                0x00837ebc                xmlStrcat
                0x00837f08                xmlStrPrintf
                0x00837fc4                xmlStrVPrintf
                0x00838020                xmlUTF8Size
                0x0083806c                xmlUTF8Charcmp
                0x008380cc                xmlUTF8Strlen
                0x0083818c                xmlGetUTF8Char
                0x008382d0                xmlCheckUTF8
                0x008383b8                xmlUTF8Strsize
                0x00838448                xmlUTF8Strndup
                0x00838528                xmlUTF8Strpos
                0x00838594                xmlUTF8Strloc
                0x00838678                xmlUTF8Strsub
                0x0083870c                xmlEscapeFormatString
 .text          0x00838874     0x231c e:/Apps/devkitPro/libwiiu/examples/haxchi/installer/libxml2/lib\libxml2.a(buf.o)
                0x00838ea4                xmlBufCreate
                0x00838f90                xmlBufCreateSize
                0x008390ac                xmlBufDetach
                0x00839100                xmlBufCreateStatic
                0x008391e0                xmlBufGetAllocationScheme
                0x008391f8                xmlBufSetAllocationScheme
                0x0083926c                xmlBufFree
                0x0083935c                xmlBufEmpty
                0x00839474                xmlBufShrink
                0x0083963c                xmlBufGrow
                0x008396c0                xmlBufInflate
                0x0083971c                xmlBufDump
                0x008397c0                xmlBufContent
                0x008397e4                xmlBufEnd
                0x00839868                xmlBufAddLen
                0x0083995c                xmlBufErase
                0x00839a4c                xmlBufUse
                0x00839ac0                xmlBufLength
                0x00839ac4                xmlBufAvail
                0x00839b58                xmlBufIsEmpty
                0x00839bdc                xmlBufResize
                0x00839bfc                xmlBufAdd
                0x00839e08                xmlBufAddHead
                0x0083a118                xmlBufCat
                0x0083a1a0                xmlBufCCat
                0x0083a384                xmlBufWriteCHAR
                0x0083a400                xmlBufWriteChar
                0x0083a47c                xmlBufWriteQuotedString
                0x0083a684                xmlBufFromBuffer
                0x0083a73c                xmlBufBackToBuffer
                0x0083a88c                xmlBufMergeBuffer
                0x0083a968                xmlBufResetInput
                0x0083aa10                xmlBufGetInputBase
                0x0083aad8                xmlBufSetInputBaseCur
 .text          0x0083ab90     0x1a54 e:/Apps/devkitPro/libwiiu/examples/haxchi/installer/libxml2/lib\libxml2.a(dict.o)
                0x0083b478                xmlInitializeDict
                0x0083b480                __xmlInitializeDict
                0x0083b49c                __xmlRandom
                0x0083b500                xmlDictCleanup
                0x0083b548                xmlDictCreate
                0x0083b644                xmlDictReference
                0x0083b6c4                xmlDictCreateSub
                0x0083b720                xmlDictFree
                0x0083b920                xmlDictLookup
                0x0083bd18                xmlDictExists
                0x0083bfd8                xmlDictQLookup
                0x0083c4fc                xmlDictOwns
                0x0083c55c                xmlDictSize
                0x0083c58c                xmlDictSetLimit
                0x0083c5a8                xmlDictGetUsage
 .text          0x0083c5e4     0x29e4 e:/Apps/devkitPro/libwiiu/examples/haxchi/installer/libxml2/lib\libxml2.a(SAX2.o)
                0x0083c5e4                xmlSAX2IsStandalone
                0x0083c614                xmlSAX2HasInternalSubset
                0x0083c640                xmlSAX2HasExternalSubset
                0x0083c66c                xmlSAX2SetDocumentLocator
                0x0083c670                xmlSAX2ResolveEntity
                0x0083c718                xmlSAX2GetParameterEntity
                0x0083c728                xmlSAX2EndDocument
                0x0083c828                xmlSAX2EndElementNs
                0x0083c8a4                xmlSAX2Reference
                0x0083c92c                xmlSAX2ProcessingInstruction
                0x0083ca2c                xmlSAX2Comment
                0x0083cb2c                xmlSAX2CDataBlock
                0x0083d3a8                xmlSAX2Characters
                0x0083d6b0                xmlSAX2InternalSubset
                0x0083d7ac                xmlSAX2ExternalSubset
                0x0083da60                xmlSAX2StartDocument
                0x0083ddb8                xmlSAX2NotationDecl
                0x0083de48                xmlSAX2ElementDecl
                0x0083deac                xmlSAX2UnparsedEntityDecl
                0x0083e050                xmlSAX2EntityDecl
                0x0083e228                xmlSAX2GetEntity
                0x0083e5a0                xmlSAX2StartElementNs
                0x0083eb7c                xmlSAX2AttributeDecl
                0x0083ed48                xmlSAX2GetPublicId
                0x0083ed50                xmlSAX2GetSystemId
                0x0083ed74                xmlSAX2GetLineNumber
                0x0083ed98                xmlSAX2GetColumnNumber
                0x0083edbc                xmlSAX2IgnorableWhitespace
                0x0083edc0                xmlSAXVersion
                0x0083ef30                xmlSAX2InitDefaultSAXHandler
                0x0083efc4                xmlDefaultSAXHandlerInit
 .text          0x0083efc8      0x2c0 e:/Apps/devkitPro/libwiiu/examples/haxchi/installer/libxml2/lib\libxml2.a(chvalid.o)
                0x0083efc8                xmlCharInRange
                0x0083f0b8                xmlIsBaseChar
                0x0083f10c                xmlIsBlank
                0x0083f140                xmlIsChar
                0x0083f1b0                xmlIsCombining
                0x0083f1d0                xmlIsDigit
                0x0083f1fc                xmlIsExtender
                0x0083f224                xmlIsIdeographic
                0x0083f264                xmlIsPubidChar
 .text          0x0083f288     0x3008 e:/Apps/devkitPro/libwiiu/examples/haxchi/installer/libxml2/lib\libxml2.a(xmlsave.o)
                0x0083fd70                xmlIsXHTML
                0x0083fe6c                xmlBufDumpNotationTable
                0x0083fee0                xmlBufDumpElementDecl
                0x0083ff54                xmlBufDumpAttributeDecl
                0x0083ffc8                xmlBufDumpEntityDecl
                0x0084003c                xmlNsListDumpOutput
                0x00840090                xmlSaveToFd
                0x00840104                xmlSaveToFilename
                0x0084017c                xmlSaveToBuffer
                0x00840254                xmlSaveToIO
                0x008402e4                xmlSaveFlush
                0x00840304                xmlSaveClose
                0x00840364                xmlSaveSetEscape
                0x00840380                xmlSaveSetAttrEscape
                0x0084039c                xmlBufAttrSerializeTxtContent
                0x00841698                xmlSaveDoc
                0x00841804                xmlSaveTree
                0x00841840                xmlAttrSerializeTxtContent
                0x008418d8                xmlNodeDumpOutput
                0x008419b0                xmlBufNodeDump
                0x00841b3c                xmlNodeDump
                0x00841bd8                xmlElemDump
                0x00841cac                xmlDocDumpFormatMemoryEnc
                0x00841ed4                xmlDocDumpMemory
                0x00841ee0                xmlDocDumpFormatMemory
                0x00841eec                xmlDocDumpMemoryEnc
                0x00841ef4                xmlDocFormatDump
                0x00841ff0                xmlDocDump
                0x00841ff8                xmlSaveFileTo
                0x0084209c                xmlSaveFormatFileTo
                0x00842188                xmlSaveFormatFileEnc
                0x00842270                xmlSaveFileEnc
                0x00842278                xmlSaveFormatFile
                0x00842284                xmlSaveFile
 .text          0x00842290     0x1870 e:/Apps/devkitPro/libwiiu/examples/haxchi/installer/libxml2/lib\libxml2.a(entities.o)
                0x008430e8                xmlGetPredefinedEntity
                0x00843238                xmlAddDtdEntity
                0x008432f8                xmlAddDocEntity
                0x008433b8                xmlNewEntity
                0x00843458                xmlGetParameterEntity
                0x008434f0                xmlGetDtdEntity
                0x0084351c                xmlGetDocEntity
                0x008435c8                xmlEncodeAttributeEntities
                0x008435d0                xmlEncodeEntitiesReentrant
                0x008435d8                xmlEncodeSpecialChars
                0x00843874                xmlCreateEntitiesTable
                0x0084387c                xmlFreeEntitiesTable
                0x00843888                xmlDumpEntityDecl
                0x00843ae8                xmlDumpEntitiesTable
 .text          0x00843b00     0x357c e:/Apps/devkitPro/libwiiu/examples/haxchi/installer/libxml2/lib\libxml2.a(encoding.o)
                0x00843dd0                isolat1ToUTF8
                0x00843f2c                UTF8Toisolat1
                0x00844c30                xmlDetectCharEncoding
                0x00844e10                xmlCleanupEncodingAliases
                0x00844efc                xmlGetEncodingAlias
                0x0084502c                xmlAddEncodingAlias
                0x0084529c                xmlDelEncodingAlias
                0x008453e4                xmlParseCharEncoding
                0x00845780                xmlGetCharEncodingName
                0x008457a8                xmlCleanupCharEncodingHandlers
                0x008458c0                xmlRegisterCharEncodingHandler
                0x00845988                xmlNewCharEncodingHandler
                0x00845b18                xmlInitCharEncodingHandlers
                0x00845c8c                xmlFindCharEncodingHandler
                0x00845e70                xmlGetCharEncodingHandler
                0x00846068                xmlCharEncFirstLineInt
                0x008461bc                xmlCharEncFirstLine
                0x008461c4                xmlCharEncFirstLineInput
                0x008463f0                xmlCharEncInput
                0x00846608                xmlCharEncInFunc
                0x00846798                xmlCharEncOutput
                0x00846b1c                xmlCharEncOutFunc
                0x00846e9c                xmlCharEncCloseFunc
                0x00846f00                xmlByteConsumed
 .text          0x0084707c     0x227c e:/Apps/devkitPro/libwiiu/examples/haxchi/installer/libxml2/lib\libxml2.a(error.o)
                0x008472e0                xmlGenericErrorDefaultFunc
                0x00847b94                initGenericErrorDefaultFunc
                0x00847bc0                xmlSetGenericErrorFunc
                0x00847bf0                xmlSetStructuredErrorFunc
                0x00847c04                xmlParserPrintFileInfo
                0x00847c60                xmlParserError
                0x00847f80                xmlParserWarning
                0x008482a0                xmlParserValidityError
                0x008485a8                xmlParserValidityWarning
                0x00848894                xmlParserPrintFileContext
                0x008488a8                xmlGetLastError
                0x008488c4                xmlResetError
                0x008488dc                xmlResetLastError
                0x008488f4                xmlCtxtGetLastError
                0x00848918                xmlCtxtResetLastError
                0x0084893c                xmlCopyError
                0x00848ad4                __xmlRaiseError
                0x008491ec                __xmlSimpleError
 .text          0x008492f8     0x2ec0 e:/Apps/devkitPro/libwiiu/examples/haxchi/installer/libxml2/lib\libxml2.a(parserInternals.o)
                0x008498a8                xmlCheckVersion
                0x008499b4                xmlErrMemory
                0x00849ac4                __xmlErrEncoding
                0x00849be8                xmlIsLetter
                0x00849ca0                xmlParserInputRead
                0x00849ca8                xmlParserInputGrow
                0x00849da4                xmlParserInputShrink
                0x00849ee4                xmlNextChar
                0x0084a348                xmlCurrentChar
                0x0084a720                xmlStringCurrentChar
                0x0084a9a4                xmlCopyCharMultiByte
                0x0084aaac                xmlCopyChar
                0x0084aad8                xmlSwitchEncoding
                0x0084ae40                xmlSwitchInputEncoding
                0x0084ae48                xmlSwitchToEncoding
                0x0084aeb4                xmlFreeInputStream
                0x0084b298                xmlNewInputStream
                0x0084b334                xmlNewIOInputStream
                0x0084b400                xmlNewEntityInputStream
                0x0084b5bc                xmlNewStringInputStream
                0x0084b694                xmlNewInputFromFile
                0x0084b8a4                xmlInitParserCtxt
                0x0084bd08                xmlFreeParserCtxt
                0x0084bd14                xmlNewParserCtxt
                0x0084bd94                xmlClearParserCtxt
                0x0084be04                xmlParserFindNodeInfo
                0x0084be84                xmlInitNodeInfoSeq
                0x0084bea0                xmlClearNodeInfoSeq
                0x0084bef8                xmlParserFindNodeInfoIndex
                0x0084bf14                xmlParserAddNodeInfo
                0x0084c154                xmlPedanticParserDefault
                0x0084c168                xmlLineNumbersDefault
                0x0084c17c                xmlSubstituteEntitiesDefault
                0x0084c190                xmlKeepBlanksDefault
 .text          0x0084c1b8      0xed4 e:/Apps/devkitPro/libwiiu/examples/haxchi/installer/libxml2/lib\libxml2.a(list.o)
                0x0084c338                xmlListCreate
                0x0084c490                xmlListSearch
                0x0084c4d4                xmlListReverseSearch
                0x0084c518                xmlListInsert
                0x0084c624                xmlListAppend
                0x0084c72c                xmlListRemoveFirst
                0x0084c7c8                xmlListRemoveLast
                0x0084c864                xmlListRemoveAll
                0x0084c8ec                xmlListClear
                0x0084c994                xmlListDelete
                0x0084ca04                xmlListEmpty
                0x0084ca2c                xmlListFront
                0x0084ca48                xmlListEnd
                0x0084ca64                xmlListSize
                0x0084caa0                xmlListPopFront
                0x0084cb2c                xmlListPopBack
                0x0084cba8                xmlListPushFront
                0x0084cc54                xmlListPushBack
                0x0084cd04                xmlLinkGetData
                0x0084cd1c                xmlListReverse
                0x0084cd6c                xmlListWalk
                0x0084cdfc                xmlListReverseWalk
                0x0084ce8c                xmlListCopy
                0x0084cf58                xmlListMerge
                0x0084cf88                xmlListDup
                0x0084d004                xmlListSort
 .text          0x0084d08c      0x510 e:/apps/devkitpro/devkitppc/bin/../lib/gcc/powerpc-eabi/6.2.0/../../../../powerpc-eabi/lib\libsysbase.a(chdir.o)
                0x0084d08c                _concatenate_path
                0x0084d340                chdir
                0x0084d4c0                getcwd
 .text          0x0084d59c      0x2e0 e:/apps/devkitpro/devkitppc/bin/../lib/gcc/powerpc-eabi/6.2.0/../../../../powerpc-eabi/lib\libsysbase.a(iosupport.o)
                0x0084d59c                setDefaultDevice
                0x0084d5b4                FindDevice
                0x0084d6c8                RemoveDevice
                0x0084d710                AddDevice
                0x0084d82c                GetDeviceOpTab
 .text.__errno  0x0084d87c        0xc e:/apps/devkitpro/devkitppc/bin/../lib/gcc/powerpc-eabi/6.2.0/../../../../powerpc-eabi/lib\libc.a(lib_a-errno.o)
                0x0084d87c                __errno
 .text._fclose_r
                0x0084d888      0x168 e:/apps/devkitpro/devkitppc/bin/../lib/gcc/powerpc-eabi/6.2.0/../../../../powerpc-eabi/lib\libc.a(lib_a-fclose.o)
                0x0084d888                _fclose_r
 .text.fclose   0x0084d9f0       0x10 e:/apps/devkitpro/devkitppc/bin/../lib/gcc/powerpc-eabi/6.2.0/../../../../powerpc-eabi/lib\libc.a(lib_a-fclose.o)
                0x0084d9f0                fclose
 .text.__sflush_r
                0x0084da00      0x2a8 e:/apps/devkitpro/devkitppc/bin/../lib/gcc/powerpc-eabi/6.2.0/../../../../powerpc-eabi/lib\libc.a(lib_a-fflush.o)
                0x0084da00                __sflush_r
 .text._fflush_r
                0x0084dca8       0xe0 e:/apps/devkitpro/devkitppc/bin/../lib/gcc/powerpc-eabi/6.2.0/../../../../powerpc-eabi/lib\libc.a(lib_a-fflush.o)
                0x0084dca8                _fflush_r
 .text.fflush   0x0084dd88       0x28 e:/apps/devkitpro/devkitppc/bin/../lib/gcc/powerpc-eabi/6.2.0/../../../../powerpc-eabi/lib\libc.a(lib_a-fflush.o)
                0x0084dd88                fflush
 .text._cleanup_r
                0x0084ddb0        0xc e:/apps/devkitpro/devkitppc/bin/../lib/gcc/powerpc-eabi/6.2.0/../../../../powerpc-eabi/lib\libc.a(lib_a-findfp.o)
                0x0084ddb0                _cleanup_r
 .text.std.isra.0
                0x0084ddbc       0x9c e:/apps/devkitpro/devkitppc/bin/../lib/gcc/powerpc-eabi/6.2.0/../../../../powerpc-eabi/lib\libc.a(lib_a-findfp.o)
 .text.__sfmoreglue
                0x0084de58       0x70 e:/apps/devkitpro/devkitppc/bin/../lib/gcc/powerpc-eabi/6.2.0/../../../../powerpc-eabi/lib\libc.a(lib_a-findfp.o)
                0x0084de58                __sfmoreglue
 .text.__sfp_lock_acquire
                0x0084dec8       0x48 e:/apps/devkitpro/devkitppc/bin/../lib/gcc/powerpc-eabi/6.2.0/../../../../powerpc-eabi/lib\libc.a(lib_a-findfp.o)
                0x0084dec8                __sfp_lock_acquire
 .text.__sfp_lock_release
                0x0084df10        0xc e:/apps/devkitpro/devkitppc/bin/../lib/gcc/powerpc-eabi/6.2.0/../../../../powerpc-eabi/lib\libc.a(lib_a-findfp.o)
                0x0084df10                __sfp_lock_release
 .text.__sinit_lock_acquire
                0x0084df1c       0x48 e:/apps/devkitpro/devkitppc/bin/../lib/gcc/powerpc-eabi/6.2.0/../../../../powerpc-eabi/lib\libc.a(lib_a-findfp.o)
                0x0084df1c                __sinit_lock_acquire
 .text.__sinit  0x0084df64       0x98 e:/apps/devkitpro/devkitppc/bin/../lib/gcc/powerpc-eabi/6.2.0/../../../../powerpc-eabi/lib\libc.a(lib_a-findfp.o)
                0x0084df64                __sinit
 .text.__sfp    0x0084dffc      0x14c e:/apps/devkitpro/devkitppc/bin/../lib/gcc/powerpc-eabi/6.2.0/../../../../powerpc-eabi/lib\libc.a(lib_a-findfp.o)
                0x0084dffc                __sfp
 .text._fopen_r
                0x0084e148      0x18c e:/apps/devkitpro/devkitppc/bin/../lib/gcc/powerpc-eabi/6.2.0/../../../../powerpc-eabi/lib\libc.a(lib_a-fopen.o)
                0x0084e148                _fopen_r
 .text.fopen    0x0084e2d4       0x14 e:/apps/devkitpro/devkitppc/bin/../lib/gcc/powerpc-eabi/6.2.0/../../../../powerpc-eabi/lib\libc.a(lib_a-fopen.o)
                0x0084e2d4                fopen
 .text.fprintf  0x0084e2e8       0x94 e:/apps/devkitpro/devkitppc/bin/../lib/gcc/powerpc-eabi/6.2.0/../../../../powerpc-eabi/lib\libc.a(lib_a-fprintf.o)
                0x0084e2e8                fprintf
 .text._fputs_r
                0x0084e37c       0xe4 e:/apps/devkitpro/devkitppc/bin/../lib/gcc/powerpc-eabi/6.2.0/../../../../powerpc-eabi/lib\libc.a(lib_a-fputs.o)
                0x0084e37c                _fputs_r
 .text.fputs    0x0084e460       0x14 e:/apps/devkitpro/devkitppc/bin/../lib/gcc/powerpc-eabi/6.2.0/../../../../powerpc-eabi/lib\libc.a(lib_a-fputs.o)
                0x0084e460                fputs
 .text._fread_r
                0x0084e474      0x350 e:/apps/devkitpro/devkitppc/bin/../lib/gcc/powerpc-eabi/6.2.0/../../../../powerpc-eabi/lib\libc.a(lib_a-fread.o)
                0x0084e474                _fread_r
 .text.fread    0x0084e7c4       0x1c e:/apps/devkitpro/devkitppc/bin/../lib/gcc/powerpc-eabi/6.2.0/../../../../powerpc-eabi/lib\libc.a(lib_a-fread.o)
                0x0084e7c4                fread
 .text._fseek_r
                0x0084e7e0        0x4 e:/apps/devkitpro/devkitppc/bin/../lib/gcc/powerpc-eabi/6.2.0/../../../../powerpc-eabi/lib\libc.a(lib_a-fseek.o)
                0x0084e7e0                _fseek_r
 .text._fseeko_r
                0x0084e7e4      0x654 e:/apps/devkitpro/devkitppc/bin/../lib/gcc/powerpc-eabi/6.2.0/../../../../powerpc-eabi/lib\libc.a(lib_a-fseeko.o)
                0x0084e7e4                _fseeko_r
 .text.__sfvwrite_r
                0x0084ee38      0x544 e:/apps/devkitpro/devkitppc/bin/../lib/gcc/powerpc-eabi/6.2.0/../../../../powerpc-eabi/lib\libc.a(lib_a-fvwrite.o)
                0x0084ee38                __sfvwrite_r
 .text._fwalk   0x0084f37c       0xd8 e:/apps/devkitpro/devkitppc/bin/../lib/gcc/powerpc-eabi/6.2.0/../../../../powerpc-eabi/lib\libc.a(lib_a-fwalk.o)
                0x0084f37c                _fwalk
 .text._fwalk_reent
                0x0084f454       0xec e:/apps/devkitpro/devkitppc/bin/../lib/gcc/powerpc-eabi/6.2.0/../../../../powerpc-eabi/lib\libc.a(lib_a-fwalk.o)
                0x0084f454                _fwalk_reent
 .text._fwrite_r
                0x0084f540      0x178 e:/apps/devkitpro/devkitppc/bin/../lib/gcc/powerpc-eabi/6.2.0/../../../../powerpc-eabi/lib\libc.a(lib_a-fwrite.o)
                0x0084f540                _fwrite_r
 .text.fwrite   0x0084f6b8       0x1c e:/apps/devkitpro/devkitppc/bin/../lib/gcc/powerpc-eabi/6.2.0/../../../../powerpc-eabi/lib\libc.a(lib_a-fwrite.o)
                0x0084f6b8                fwrite
 .text.getenv   0x0084f6d4       0x30 e:/apps/devkitpro/devkitppc/bin/../lib/gcc/powerpc-eabi/6.2.0/../../../../powerpc-eabi/lib\libc.a(lib_a-getenv.o)
                0x0084f6d4                getenv
 .text._findenv_r
                0x0084f704      0x13c e:/apps/devkitpro/devkitppc/bin/../lib/gcc/powerpc-eabi/6.2.0/../../../../powerpc-eabi/lib\libc.a(lib_a-getenv_r.o)
                0x0084f704                _findenv_r
 .text.__smakebuf_r
                0x0084f840      0x1c8 e:/apps/devkitpro/devkitppc/bin/../lib/gcc/powerpc-eabi/6.2.0/../../../../powerpc-eabi/lib\libc.a(lib_a-makebuf.o)
                0x0084f840                __smakebuf_r
 .text.memchr   0x0084fa08       0xec e:/apps/devkitpro/devkitppc/bin/../lib/gcc/powerpc-eabi/6.2.0/../../../../powerpc-eabi/lib\libc.a(lib_a-memchr.o)
                0x0084fa08                memchr
 .text.memcmp   0x0084faf4       0x94 e:/apps/devkitpro/devkitppc/bin/../lib/gcc/powerpc-eabi/6.2.0/../../../../powerpc-eabi/lib\libc.a(lib_a-memcmp.o)
                0x0084faf4                memcmp
 .text.memcpy   0x0084fb88       0xfc e:/apps/devkitpro/devkitppc/bin/../lib/gcc/powerpc-eabi/6.2.0/../../../../powerpc-eabi/lib\libc.a(lib_a-memcpy.o)
                0x0084fb88                memcpy
 .text.memmove  0x0084fc84      0x144 e:/apps/devkitpro/devkitppc/bin/../lib/gcc/powerpc-eabi/6.2.0/../../../../powerpc-eabi/lib\libc.a(lib_a-memmove.o)
                0x0084fc84                memmove
 .text.memset   0x0084fdc8      0x114 e:/apps/devkitpro/devkitppc/bin/../lib/gcc/powerpc-eabi/6.2.0/../../../../powerpc-eabi/lib\libc.a(lib_a-memset.o)
                0x0084fdc8                memset
 .text.qsort    0x0084fedc      0xa6c e:/apps/devkitpro/devkitppc/bin/../lib/gcc/powerpc-eabi/6.2.0/../../../../powerpc-eabi/lib\libc.a(lib_a-qsort.o)
                0x0084fedc                qsort
 .text.rand_r   0x00850948       0x84 e:/apps/devkitpro/devkitppc/bin/../lib/gcc/powerpc-eabi/6.2.0/../../../../powerpc-eabi/lib\libc.a(lib_a-rand_r.o)
                0x00850948                rand_r
 .text.lflush   0x008509cc       0x1c e:/apps/devkitpro/devkitppc/bin/../lib/gcc/powerpc-eabi/6.2.0/../../../../powerpc-eabi/lib\libc.a(lib_a-refill.o)
 .text.__srefill_r
                0x008509e8      0x258 e:/apps/devkitpro/devkitppc/bin/../lib/gcc/powerpc-eabi/6.2.0/../../../../powerpc-eabi/lib\libc.a(lib_a-refill.o)
                0x008509e8                __srefill_r
 .text.snprintf
                0x00850c40      0x16c e:/apps/devkitpro/devkitppc/bin/../lib/gcc/powerpc-eabi/6.2.0/../../../../powerpc-eabi/lib\libc.a(lib_a-snprintf.o)
                0x00850c40                snprintf
 .text.sprintf  0x00850dac       0xcc e:/apps/devkitpro/devkitppc/bin/../lib/gcc/powerpc-eabi/6.2.0/../../../../powerpc-eabi/lib\libc.a(lib_a-sprintf.o)
                0x00850dac                sprintf
 .text.sscanf   0x00850e78       0xe0 e:/apps/devkitpro/devkitppc/bin/../lib/gcc/powerpc-eabi/6.2.0/../../../../powerpc-eabi/lib\libc.a(lib_a-sscanf.o)
                0x00850e78                sscanf
 .text.__sread  0x00850f58       0x74 e:/apps/devkitpro/devkitppc/bin/../lib/gcc/powerpc-eabi/6.2.0/../../../../powerpc-eabi/lib\libc.a(lib_a-stdio.o)
                0x00850f58                __sread
 .text.__seofread
                0x00850fcc        0x8 e:/apps/devkitpro/devkitppc/bin/../lib/gcc/powerpc-eabi/6.2.0/../../../../powerpc-eabi/lib\libc.a(lib_a-stdio.o)
                0x00850fcc                __seofread
 .text.__swrite
                0x00850fd4       0xc4 e:/apps/devkitpro/devkitppc/bin/../lib/gcc/powerpc-eabi/6.2.0/../../../../powerpc-eabi/lib\libc.a(lib_a-stdio.o)
                0x00850fd4                __swrite
 .text.__sseek  0x00851098       0x70 e:/apps/devkitpro/devkitppc/bin/../lib/gcc/powerpc-eabi/6.2.0/../../../../powerpc-eabi/lib\libc.a(lib_a-stdio.o)
                0x00851098                __sseek
 .text.__sclose
                0x00851108        0x8 e:/apps/devkitpro/devkitppc/bin/../lib/gcc/powerpc-eabi/6.2.0/../../../../powerpc-eabi/lib\libc.a(lib_a-stdio.o)
                0x00851108                __sclose
 .text.stpcpy   0x00851110       0x70 e:/apps/devkitpro/devkitppc/bin/../lib/gcc/powerpc-eabi/6.2.0/../../../../powerpc-eabi/lib\libc.a(lib_a-stpcpy.o)
                0x00851110                stpcpy
 .text.strcat   0x00851180       0x88 e:/apps/devkitpro/devkitppc/bin/../lib/gcc/powerpc-eabi/6.2.0/../../../../powerpc-eabi/lib\libc.a(lib_a-strcat.o)
                0x00851180                strcat
 .text.strchr   0x00851208      0x174 e:/apps/devkitpro/devkitppc/bin/../lib/gcc/powerpc-eabi/6.2.0/../../../../powerpc-eabi/lib\libc.a(lib_a-strchr.o)
                0x00851208                strchr
 .text.strcmp   0x0085137c       0xa8 e:/apps/devkitpro/devkitppc/bin/../lib/gcc/powerpc-eabi/6.2.0/../../../../powerpc-eabi/lib\libc.a(lib_a-strcmp.o)
                0x0085137c                strcmp
 .text.strcpy   0x00851424       0x70 e:/apps/devkitpro/devkitppc/bin/../lib/gcc/powerpc-eabi/6.2.0/../../../../powerpc-eabi/lib\libc.a(lib_a-strcpy.o)
                0x00851424                strcpy
 .text.strlen   0x00851494       0xa8 e:/apps/devkitpro/devkitppc/bin/../lib/gcc/powerpc-eabi/6.2.0/../../../../powerpc-eabi/lib\libc.a(lib_a-strlen.o)
                0x00851494                strlen
 .text.strncmp  0x0085153c      0x104 e:/apps/devkitpro/devkitppc/bin/../lib/gcc/powerpc-eabi/6.2.0/../../../../powerpc-eabi/lib\libc.a(lib_a-strncmp.o)
                0x0085153c                strncmp
 .text.strncpy  0x00851640       0xe4 e:/apps/devkitpro/devkitppc/bin/../lib/gcc/powerpc-eabi/6.2.0/../../../../powerpc-eabi/lib\libc.a(lib_a-strncpy.o)
                0x00851640                strncpy
 .text.strnlen  0x00851724       0x44 e:/apps/devkitpro/devkitppc/bin/../lib/gcc/powerpc-eabi/6.2.0/../../../../powerpc-eabi/lib\libc.a(lib_a-strnlen.o)
                0x00851724                strnlen
 .text.strrchr  0x00851768       0x78 e:/apps/devkitpro/devkitppc/bin/../lib/gcc/powerpc-eabi/6.2.0/../../../../powerpc-eabi/lib\libc.a(lib_a-strrchr.o)
                0x00851768                strrchr
 .text._svfprintf_r
                0x008517e0     0x24d8 e:/apps/devkitpro/devkitppc/bin/../lib/gcc/powerpc-eabi/6.2.0/../../../../powerpc-eabi/lib\libc.a(lib_a-svfprintf.o)
                0x008517e0                _svfprintf_r
 .text.__ssvfscanf_r
                0x00853cb8     0x1448 e:/apps/devkitpro/devkitppc/bin/../lib/gcc/powerpc-eabi/6.2.0/../../../../powerpc-eabi/lib\libc.a(lib_a-svfscanf.o)
                0x00853cb8                __ssvfscanf_r
 .text.close    0x00855100       0x10 e:/apps/devkitpro/devkitppc/bin/../lib/gcc/powerpc-eabi/6.2.0/../../../../powerpc-eabi/lib\libc.a(lib_a-sysclose.o)
                0x00855100                close
 .text.read     0x00855110       0x18 e:/apps/devkitpro/devkitppc/bin/../lib/gcc/powerpc-eabi/6.2.0/../../../../powerpc-eabi/lib\libc.a(lib_a-sysread.o)
                0x00855110                read
 .text.stat     0x00855128       0x14 e:/apps/devkitpro/devkitppc/bin/../lib/gcc/powerpc-eabi/6.2.0/../../../../powerpc-eabi/lib\libc.a(lib_a-sysstat.o)
                0x00855128                stat
 .text.write    0x0085513c       0x18 e:/apps/devkitpro/devkitppc/bin/../lib/gcc/powerpc-eabi/6.2.0/../../../../powerpc-eabi/lib\libc.a(lib_a-syswrite.o)
                0x0085513c                write
 .text.time     0x00855154       0x5c e:/apps/devkitpro/devkitppc/bin/../lib/gcc/powerpc-eabi/6.2.0/../../../../powerpc-eabi/lib\libc.a(lib_a-time.o)
                0x00855154                time
 .text._vfprintf_r
                0x008551b0     0x2594 e:/apps/devkitpro/devkitppc/bin/../lib/gcc/powerpc-eabi/6.2.0/../../../../powerpc-eabi/lib\libc.a(lib_a-vfprintf.o)
                0x008551b0                _vfprintf_r
 .text.vfprintf
                0x00857744       0x18 e:/apps/devkitpro/devkitppc/bin/../lib/gcc/powerpc-eabi/6.2.0/../../../../powerpc-eabi/lib\libc.a(lib_a-vfprintf.o)
                0x00857744                vfprintf
 .text.__sbprintf
                0x0085775c       0xf8 e:/apps/devkitpro/devkitppc/bin/../lib/gcc/powerpc-eabi/6.2.0/../../../../powerpc-eabi/lib\libc.a(lib_a-vfprintf.o)
 .text._vsnprintf_r
                0x00857854       0xe8 e:/apps/devkitpro/devkitppc/bin/../lib/gcc/powerpc-eabi/6.2.0/../../../../powerpc-eabi/lib\libc.a(lib_a-vsnprintf.o)
                0x00857854                _vsnprintf_r
 .text.vsnprintf
                0x0085793c       0x1c e:/apps/devkitpro/devkitppc/bin/../lib/gcc/powerpc-eabi/6.2.0/../../../../powerpc-eabi/lib\libc.a(lib_a-vsnprintf.o)
                0x0085793c                vsnprintf
 .text._wcrtomb_r
                0x00857958       0xbc e:/apps/devkitpro/devkitppc/bin/../lib/gcc/powerpc-eabi/6.2.0/../../../../powerpc-eabi/lib\libc.a(lib_a-wcrtomb.o)
                0x00857958                _wcrtomb_r
 .text._wcsrtombs_r
                0x00857a14       0x10 e:/apps/devkitpro/devkitppc/bin/../lib/gcc/powerpc-eabi/6.2.0/../../../../powerpc-eabi/lib\libc.a(lib_a-wcsrtombs.o)
                0x00857a14                _wcsrtombs_r
 .text.__utf8_wctomb
                0x00857a24       0xf0 e:/apps/devkitpro/devkitppc/bin/../lib/gcc/powerpc-eabi/6.2.0/../../../../powerpc-eabi/lib\libc.a(lib_a-wctomb_r.o)
                0x00857a24                __utf8_wctomb
 .text.__swsetup_r
                0x00857b14      0x188 e:/apps/devkitpro/devkitppc/bin/../lib/gcc/powerpc-eabi/6.2.0/../../../../powerpc-eabi/lib\libc.a(lib_a-wsetup.o)
                0x00857b14                __swsetup_r
 .text.quorem   0x00857c9c      0x254 e:/apps/devkitpro/devkitppc/bin/../lib/gcc/powerpc-eabi/6.2.0/../../../../powerpc-eabi/lib\libc.a(lib_a-dtoa.o)
 .text._dtoa_r  0x00857ef0     0x126c e:/apps/devkitpro/devkitppc/bin/../lib/gcc/powerpc-eabi/6.2.0/../../../../powerpc-eabi/lib\libc.a(lib_a-dtoa.o)
                0x00857ef0                _dtoa_r
 .text.__env_lock
                0x0085915c       0x48 e:/apps/devkitpro/devkitppc/bin/../lib/gcc/powerpc-eabi/6.2.0/../../../../powerpc-eabi/lib\libc.a(lib_a-envlock.o)
                0x0085915c                __env_lock
 .text.__env_unlock
                0x008591a4        0xc e:/apps/devkitpro/devkitppc/bin/../lib/gcc/powerpc-eabi/6.2.0/../../../../powerpc-eabi/lib\libc.a(lib_a-envlock.o)
                0x008591a4                __env_unlock
 .text.__sflags
                0x008591b0       0xac e:/apps/devkitpro/devkitppc/bin/../lib/gcc/powerpc-eabi/6.2.0/../../../../powerpc-eabi/lib\libc.a(lib_a-flags.o)
                0x008591b0                __sflags
 .text.iswspace
                0x0085925c       0x8c e:/apps/devkitpro/devkitppc/bin/../lib/gcc/powerpc-eabi/6.2.0/../../../../powerpc-eabi/lib\libc.a(lib_a-iswspace.o)
                0x0085925c                iswspace
 .text.__jp2uc  0x008592e8      0x248 e:/apps/devkitpro/devkitppc/bin/../lib/gcc/powerpc-eabi/6.2.0/../../../../powerpc-eabi/lib\libc.a(lib_a-jp2uc.o)
 .text._jp2uc   0x00859530       0xa8 e:/apps/devkitpro/devkitppc/bin/../lib/gcc/powerpc-eabi/6.2.0/../../../../powerpc-eabi/lib\libc.a(lib_a-jp2uc.o)
                0x00859530                _jp2uc
 .text.__locale_charset
                0x008595d8        0xc e:/apps/devkitpro/devkitppc/bin/../lib/gcc/powerpc-eabi/6.2.0/../../../../powerpc-eabi/lib\libc.a(lib_a-locale.o)
                0x008595d8                __locale_charset
 .text.__locale_mb_cur_max
                0x008595e4        0xc e:/apps/devkitpro/devkitppc/bin/../lib/gcc/powerpc-eabi/6.2.0/../../../../powerpc-eabi/lib\libc.a(lib_a-locale.o)
                0x008595e4                __locale_mb_cur_max
 .text._localeconv_r
                0x008595f0        0xc e:/apps/devkitpro/devkitppc/bin/../lib/gcc/powerpc-eabi/6.2.0/../../../../powerpc-eabi/lib\libc.a(lib_a-locale.o)
                0x008595f0                _localeconv_r
 .text._mbrtowc_r
                0x008595fc       0xcc e:/apps/devkitpro/devkitppc/bin/../lib/gcc/powerpc-eabi/6.2.0/../../../../powerpc-eabi/lib\libc.a(lib_a-mbrtowc.o)
                0x008595fc                _mbrtowc_r
 .text.__utf8_mbtowc
                0x008596c8      0x5d8 e:/apps/devkitpro/devkitppc/bin/../lib/gcc/powerpc-eabi/6.2.0/../../../../powerpc-eabi/lib\libc.a(lib_a-mbtowc_r.o)
                0x008596c8                __utf8_mbtowc
 .text._Balloc  0x00859ca0       0xbc e:/apps/devkitpro/devkitppc/bin/../lib/gcc/powerpc-eabi/6.2.0/../../../../powerpc-eabi/lib\libc.a(lib_a-mprec.o)
                0x00859ca0                _Balloc
 .text._Bfree   0x00859d5c       0x24 e:/apps/devkitpro/devkitppc/bin/../lib/gcc/powerpc-eabi/6.2.0/../../../../powerpc-eabi/lib\libc.a(lib_a-mprec.o)
                0x00859d5c                _Bfree
 .text.__multadd
                0x00859d80      0x120 e:/apps/devkitpro/devkitppc/bin/../lib/gcc/powerpc-eabi/6.2.0/../../../../powerpc-eabi/lib\libc.a(lib_a-mprec.o)
                0x00859d80                __multadd
 .text.__s2b    0x00859ea0      0x138 e:/apps/devkitpro/devkitppc/bin/../lib/gcc/powerpc-eabi/6.2.0/../../../../powerpc-eabi/lib\libc.a(lib_a-mprec.o)
                0x00859ea0                __s2b
 .text.__hi0bits
                0x00859fd8       0x64 e:/apps/devkitpro/devkitppc/bin/../lib/gcc/powerpc-eabi/6.2.0/../../../../powerpc-eabi/lib\libc.a(lib_a-mprec.o)
                0x00859fd8                __hi0bits
 .text.__lo0bits
                0x0085a03c       0xc0 e:/apps/devkitpro/devkitppc/bin/../lib/gcc/powerpc-eabi/6.2.0/../../../../powerpc-eabi/lib\libc.a(lib_a-mprec.o)
                0x0085a03c                __lo0bits
 .text.__i2b    0x0085a0fc       0x3c e:/apps/devkitpro/devkitppc/bin/../lib/gcc/powerpc-eabi/6.2.0/../../../../powerpc-eabi/lib\libc.a(lib_a-mprec.o)
                0x0085a0fc                __i2b
 .text.__multiply
                0x0085a138      0x254 e:/apps/devkitpro/devkitppc/bin/../lib/gcc/powerpc-eabi/6.2.0/../../../../powerpc-eabi/lib\libc.a(lib_a-mprec.o)
                0x0085a138                __multiply
 .text.__pow5mult
                0x0085a38c      0x15c e:/apps/devkitpro/devkitppc/bin/../lib/gcc/powerpc-eabi/6.2.0/../../../../powerpc-eabi/lib\libc.a(lib_a-mprec.o)
                0x0085a38c                __pow5mult
 .text.__lshift
                0x0085a4e8      0x17c e:/apps/devkitpro/devkitppc/bin/../lib/gcc/powerpc-eabi/6.2.0/../../../../powerpc-eabi/lib\libc.a(lib_a-mprec.o)
                0x0085a4e8                __lshift
 .text.__mcmp   0x0085a664       0x5c e:/apps/devkitpro/devkitppc/bin/../lib/gcc/powerpc-eabi/6.2.0/../../../../powerpc-eabi/lib\libc.a(lib_a-mprec.o)
                0x0085a664                __mcmp
 .text.__mdiff  0x0085a6c0      0x22c e:/apps/devkitpro/devkitppc/bin/../lib/gcc/powerpc-eabi/6.2.0/../../../../powerpc-eabi/lib\libc.a(lib_a-mprec.o)
                0x0085a6c0                __mdiff
 .text.__ulp    0x0085a8ec       0x9c e:/apps/devkitpro/devkitppc/bin/../lib/gcc/powerpc-eabi/6.2.0/../../../../powerpc-eabi/lib\libc.a(lib_a-mprec.o)
                0x0085a8ec                __ulp
 .text.__b2d    0x0085a988      0x154 e:/apps/devkitpro/devkitppc/bin/../lib/gcc/powerpc-eabi/6.2.0/../../../../powerpc-eabi/lib\libc.a(lib_a-mprec.o)
                0x0085a988                __b2d
 .text.__d2b    0x0085aadc      0x188 e:/apps/devkitpro/devkitppc/bin/../lib/gcc/powerpc-eabi/6.2.0/../../../../powerpc-eabi/lib\libc.a(lib_a-mprec.o)
                0x0085aadc                __d2b
 .text.__ratio  0x0085ac64       0xdc e:/apps/devkitpro/devkitppc/bin/../lib/gcc/powerpc-eabi/6.2.0/../../../../powerpc-eabi/lib\libc.a(lib_a-mprec.o)
                0x0085ac64                __ratio
 .text.__copybits
                0x0085ad40       0x8c e:/apps/devkitpro/devkitppc/bin/../lib/gcc/powerpc-eabi/6.2.0/../../../../powerpc-eabi/lib\libc.a(lib_a-mprec.o)
                0x0085ad40                __copybits
 .text.__any_on
                0x0085adcc       0x98 e:/apps/devkitpro/devkitppc/bin/../lib/gcc/powerpc-eabi/6.2.0/../../../../powerpc-eabi/lib\libc.a(lib_a-mprec.o)
                0x0085adcc                __any_on
 .text.__sccl   0x0085ae64       0xec e:/apps/devkitpro/devkitppc/bin/../lib/gcc/powerpc-eabi/6.2.0/../../../../powerpc-eabi/lib\libc.a(lib_a-sccl.o)
                0x0085ae64                __sccl
 .text.nanf     0x0085af50        0xc e:/apps/devkitpro/devkitppc/bin/../lib/gcc/powerpc-eabi/6.2.0/../../../../powerpc-eabi/lib\libc.a(lib_a-sf_nan.o)
                0x0085af50                nanf
 .text.__fpclassifyd
                0x0085af5c       0x94 e:/apps/devkitpro/devkitppc/bin/../lib/gcc/powerpc-eabi/6.2.0/../../../../powerpc-eabi/lib\libc.a(lib_a-s_fpclassify.o)
                0x0085af5c                __fpclassifyd
 .text._strtod_r
                0x0085aff0     0x134c e:/apps/devkitpro/devkitppc/bin/../lib/gcc/powerpc-eabi/6.2.0/../../../../powerpc-eabi/lib\libc.a(lib_a-strtod.o)
                0x0085aff0                _strtod_r
 .text._strtoll_r
                0x0085c33c      0x334 e:/apps/devkitpro/devkitppc/bin/../lib/gcc/powerpc-eabi/6.2.0/../../../../powerpc-eabi/lib\libc.a(lib_a-strtoll_r.o)
                0x0085c33c                _strtoll_r
 .text._strtol_r
                0x0085c670      0x23c e:/apps/devkitpro/devkitppc/bin/../lib/gcc/powerpc-eabi/6.2.0/../../../../powerpc-eabi/lib\libc.a(lib_a-strtol.o)
                0x0085c670                _strtol_r
 .text._strtoull_r
                0x0085c8ac      0x318 e:/apps/devkitpro/devkitppc/bin/../lib/gcc/powerpc-eabi/6.2.0/../../../../powerpc-eabi/lib\libc.a(lib_a-strtoull_r.o)
                0x0085c8ac                _strtoull_r
 .text._strtoul_r
                0x0085cbc4      0x230 e:/apps/devkitpro/devkitppc/bin/../lib/gcc/powerpc-eabi/6.2.0/../../../../powerpc-eabi/lib\libc.a(lib_a-strtoul.o)
                0x0085cbc4                _strtoul_r
 .text.__ssprint_r
                0x0085cdf4      0x258 e:/apps/devkitpro/devkitppc/bin/../lib/gcc/powerpc-eabi/6.2.0/../../../../powerpc-eabi/lib\libc.a(lib_a-svfiprintf.o)
                0x0085cdf4                __ssprint_r
 .text._sungetc_r
                0x0085d04c      0x134 e:/apps/devkitpro/devkitppc/bin/../lib/gcc/powerpc-eabi/6.2.0/../../../../powerpc-eabi/lib\libc.a(lib_a-svfiscanf.o)
                0x0085d04c                _sungetc_r
 .text.__ssrefill_r
                0x0085d180       0x8c e:/apps/devkitpro/devkitppc/bin/../lib/gcc/powerpc-eabi/6.2.0/../../../../powerpc-eabi/lib\libc.a(lib_a-svfiscanf.o)
                0x0085d180                __ssrefill_r
 .text._sfread_r
                0x0085d20c      0x13c e:/apps/devkitpro/devkitppc/bin/../lib/gcc/powerpc-eabi/6.2.0/../../../../powerpc-eabi/lib\libc.a(lib_a-svfiscanf.o)
                0x0085d20c                _sfread_r
 .text.__submore
                0x0085d348      0x100 e:/apps/devkitpro/devkitppc/bin/../lib/gcc/powerpc-eabi/6.2.0/../../../../powerpc-eabi/lib\libc.a(lib_a-ungetc.o)
                0x0085d348                __submore
 .text.__sprint_r.part.0
                0x0085d448      0x138 e:/apps/devkitpro/devkitppc/bin/../lib/gcc/powerpc-eabi/6.2.0/../../../../powerpc-eabi/lib\libc.a(lib_a-vfiprintf.o)
 .text.__sprint_r
                0x0085d580       0x1c e:/apps/devkitpro/devkitppc/bin/../lib/gcc/powerpc-eabi/6.2.0/../../../../powerpc-eabi/lib\libc.a(lib_a-vfiprintf.o)
                0x0085d580                __sprint_r
 .text._wcsnrtombs_r
                0x0085d59c      0x1dc e:/apps/devkitpro/devkitppc/bin/../lib/gcc/powerpc-eabi/6.2.0/../../../../powerpc-eabi/lib\libc.a(lib_a-wcsnrtombs.o)
                0x0085d59c                _wcsnrtombs_r
 .text._fputwc_r
                0x0085d778      0x1e8 e:/apps/devkitpro/devkitppc/bin/../lib/gcc/powerpc-eabi/6.2.0/../../../../powerpc-eabi/lib\libc.a(lib_a-fputwc.o)
                0x0085d778                _fputwc_r
 .text.rshift   0x0085d960      0x114 e:/apps/devkitpro/devkitppc/bin/../lib/gcc/powerpc-eabi/6.2.0/../../../../powerpc-eabi/lib\libc.a(lib_a-gdtoa-gethex.o)
 .text.__hexdig_init
                0x0085da74       0x84 e:/apps/devkitpro/devkitppc/bin/../lib/gcc/powerpc-eabi/6.2.0/../../../../powerpc-eabi/lib\libc.a(lib_a-gdtoa-gethex.o)
                0x0085da74                __hexdig_init
 .text.__gethex
                0x0085daf8      0x7fc e:/apps/devkitpro/devkitppc/bin/../lib/gcc/powerpc-eabi/6.2.0/../../../../powerpc-eabi/lib\libc.a(lib_a-gdtoa-gethex.o)
                0x0085daf8                __gethex
 .text.__hexnan
                0x0085e2f4      0x31c e:/apps/devkitpro/devkitppc/bin/../lib/gcc/powerpc-eabi/6.2.0/../../../../powerpc-eabi/lib\libc.a(lib_a-gdtoa-hexnan.o)
                0x0085e2f4                __hexnan
 .text.__swbuf_r
                0x0085e610      0x190 e:/apps/devkitpro/devkitppc/bin/../lib/gcc/powerpc-eabi/6.2.0/../../../../powerpc-eabi/lib\libc.a(lib_a-wbuf.o)
                0x0085e610                __swbuf_r
 .text          0x0085e7a0       0xa0 e:/apps/devkitpro/devkitppc/bin/../lib/gcc/powerpc-eabi/6.2.0/../../../../powerpc-eabi/lib\libsysbase.a(close.o)
                0x0085e7a0                _close_r
 .text          0x0085e840       0xb0 e:/apps/devkitpro/devkitppc/bin/../lib/gcc/powerpc-eabi/6.2.0/../../../../powerpc-eabi/lib\libsysbase.a(fstat.o)
                0x0085e840                _fstat_r
 .text          0x0085e8f0       0x28 e:/apps/devkitpro/devkitppc/bin/../lib/gcc/powerpc-eabi/6.2.0/../../../../powerpc-eabi/lib\libsysbase.a(gettod.o)
                0x0085e8f0                _gettimeofday_r
 .text          0x0085e918        0x8 e:/apps/devkitpro/devkitppc/bin/../lib/gcc/powerpc-eabi/6.2.0/../../../../powerpc-eabi/lib\libsysbase.a(isatty.o)
                0x0085e918                _isatty_r
 .text          0x0085e920       0xc0 e:/apps/devkitpro/devkitppc/bin/../lib/gcc/powerpc-eabi/6.2.0/../../../../powerpc-eabi/lib\libsysbase.a(lseek.o)
                0x0085e920                _lseek_r
 .text          0x0085e9e0      0x14c e:/apps/devkitpro/devkitppc/bin/../lib/gcc/powerpc-eabi/6.2.0/../../../../powerpc-eabi/lib\libsysbase.a(open.o)
                0x0085e9e0                _open_r
 .text          0x0085eb2c       0xb0 e:/apps/devkitpro/devkitppc/bin/../lib/gcc/powerpc-eabi/6.2.0/../../../../powerpc-eabi/lib\libsysbase.a(read.o)
                0x0085eb2c                _read_r
 .text          0x0085ebdc       0xa4 e:/apps/devkitpro/devkitppc/bin/../lib/gcc/powerpc-eabi/6.2.0/../../../../powerpc-eabi/lib\libsysbase.a(stat.o)
                0x0085ebdc                _stat_r
 .text          0x0085ec80       0xd4 e:/apps/devkitpro/devkitppc/bin/../lib/gcc/powerpc-eabi/6.2.0/../../../../powerpc-eabi/lib\libsysbase.a(write.o)
                0x0085ec80                _write_r
 .text          0x0085ed54       0x4c e:/apps/devkitpro/devkitppc/bin/../lib/gcc/powerpc-eabi/6.2.0/../../../../powerpc-eabi/lib\libsysbase.a(flock.o)
                0x0085ed54                __flockfile
                0x0085ed98                __funlockfile
 .text          0x0085eda0       0xb0 e:/apps/devkitpro/devkitppc/bin/../lib/gcc/powerpc-eabi/6.2.0/../../../../powerpc-eabi/lib\libsysbase.a(syscall_support.o)
                0x0085eda0                __libc_lock_init
                0x0085edc0                __libc_lock_close
                0x0085ede0                __libc_lock_release
                0x0085ee00                __libc_lock_acquire
                0x0085ee20                __malloc_lock
                0x0085ee38                __malloc_unlock
 .text          0x0085ee50      0x174 e:/apps/devkitpro/devkitppc/bin/../lib/gcc/powerpc-eabi/6.2.0/../../../../powerpc-eabi/lib\libsysbase.a(handle_manager.o)
                0x0085ee50                __release_handle
                0x0085eeac                __alloc_handle
                0x0085ef9c                __get_handle
 .text          0x0085efc4      0x3e4 e:/apps/devkitpro/devkitppc/bin/../lib/gcc/powerpc-eabi/6.2.0\libgcc.a(_udivdi3.o)
                0x0085efc4                __udivdi3
 .text          0x0085f3a8      0x3c4 e:/apps/devkitpro/devkitppc/bin/../lib/gcc/powerpc-eabi/6.2.0\libgcc.a(_umoddi3.o)
                0x0085f3a8                __umoddi3

.rodata         0x0085f780    0x959e4
 *(.rodata*)
 .rodata.IOSUExploit.str1.4
                0x0085f780        0xb exploit.o
 *fill*         0x0085f78b        0x1 
 .rodata.arm_kernel_bin
                0x0085f78c      0x2e0 exploit.o
 .rodata.arm_user_bin
                0x0085fa6c       0xb0 exploit.o
 .rodata.final_chain
                0x0085fb1c      0x348 exploit.o
 .rodata.second_chain
                0x0085fe64       0xc8 exploit.o
 .rodata        0x0085ff2c        0x3 main.o
 *fill*         0x0085ff2f        0x1 
 .rodata.MCPHookOpen.str1.4
                0x0085ff30        0x9 main.o
 *fill*         0x0085ff39        0x3 
 .rodata.Menu_Main.cst4
                0x0085ff3c        0xc main.o
 .rodata.Menu_Main.str1.4
                0x0085ff48      0x6a4 main.o
                                0x6b0 (size before relaxing)
 .rodata.printhdr_noflip.str1.4
                0x008605ec       0x17 main.o
                                 0x1a (size before relaxing)
 *fill*         0x00860603        0x1 
 .rodata.wupserver_bin
                0x00860604     0x14a8 main.o
 .rodata.InitAcquireOS.str1.4
                0x00861aac        0xd os_functions.o
 *fill*         0x00861ab9        0x3 
 .rodata.InitOSFunctionPointers.str1.4
                0x00861abc      0xcd3 os_functions.o
 *fill*         0x0086278f        0x1 
 .rodata.InitAcquireSys.str1.4
                0x00862790        0xb sys_functions.o
 *fill*         0x0086279b        0x1 
 .rodata.InitSysFunctionPointers.str1.4
                0x0086279c      0x163 sys_functions.o
 *fill*         0x008628ff        0x1 
 .rodata.InitAcquireVPad.str1.4
                0x00862900       0x19 vpad_functions.o
 *fill*         0x00862919        0x3 
 .rodata.InitVPadFunctionPointers.str1.4
                0x0086291c      0x15e vpad_functions.o
 *fill*         0x00862a7a        0x6 
 .rodata        0x00862a80     0x5f4a animalcrossing.zip.o
                0x00862a80                animalcrossing_zip
                0x008689c6                animalcrossing_zip_end
                0x008689c6                animalcrossing_zip_size
 *fill*         0x008689ca       0x16 
 .rodata        0x008689e0     0x5f47 bigbrainacademy.zip.o
                0x008689e0                bigbrainacademy_zip
                0x0086e923                bigbrainacademy_zip_end
                0x0086e923                bigbrainacademy_zip_size
 *fill*         0x0086e927       0x19 
 .rodata        0x0086e940     0x5f42 brainage.zip.o
                0x0086e940                brainage_zip
                0x0087487e                brainage_zip_end
                0x0087487e                brainage_zip_size
 *fill*         0x00874882       0x1e 
 .rodata        0x008748a0     0x5f40 dkjclimber.zip.o
                0x008748a0                dkjclimber_zip
                0x0087a7dc                dkjclimber_zip_end
                0x0087a7dc                dkjclimber_zip_size
 .rodata        0x0087a7e0     0x5f4b explorersofsky.zip.o
                0x0087a7e0                explorersofsky_zip
                0x00880727                explorersofsky_zip_end
                0x00880727                explorersofsky_zip_size
 *fill*         0x0088072b       0x15 
 .rodata        0x00880740     0x5f47 guardiansigns.zip.o
                0x00880740                guardiansigns_zip
                0x00886683                guardiansigns_zip_end
                0x00886683                guardiansigns_zip_size
 *fill*         0x00886687       0x19 
 .rodata        0x008866a0     0x5f38 kirby.zip.o
                0x008866a0                kirby_zip
                0x0088c5d4                kirby_zip_size
                0x0088c5d4                kirby_zip_end
 *fill*         0x0088c5d8        0x8 
 .rodata        0x0088c5e0     0x5f4d kirbycanvascurse.zip.o
                0x0088c5e0                kirbycanvascurse_zip
                0x00892529                kirbycanvascurse_zip_end
                0x00892529                kirbycanvascurse_zip_size
 *fill*         0x0089252d       0x13 
 .rodata        0x00892540     0x5f4e kirbymassattack.zip.o
                0x00892540                kirbymassattack_zip
                0x0089848a                kirbymassattack_zip_end
                0x0089848a                kirbymassattack_zip_size
 *fill*         0x0089848e       0x12 
 .rodata        0x008984a0     0x5f45 mariokartds.zip.o
                0x008984a0                mariokartds_zip
                0x0089e3e1                mariokartds_zip_size
                0x0089e3e1                mariokartds_zip_end
 *fill*         0x0089e3e5       0x1b 
 .rodata        0x0089e400     0x5f4b masterofdisguise.zip.o
                0x0089e400                masterofdisguise_zip
                0x008a4347                masterofdisguise_zip_end
                0x008a4347                masterofdisguise_zip_size
 *fill*         0x008a434b       0x15 
 .rodata        0x008a4360     0x5f3b newsmb.zip.o
                0x008a4360                newsmb_zip
                0x008aa297                newsmb_zip_size
                0x008aa297                newsmb_zip_end
 *fill*         0x008aa29b        0x5 
 .rodata        0x008aa2a0     0x5f41 newsmb_eur.zip.o
                0x008aa2a0                newsmb_eur_zip
                0x008b01dd                newsmb_eur_zip_size
                0x008b01dd                newsmb_eur_zip_end
 *fill*         0x008b01e1       0x1f 
 .rodata        0x008b0200     0x5f48 partnersintime.zip.o
                0x008b0200                partnersintime_zip
                0x008b6144                partnersintime_zip_size
                0x008b6144                partnersintime_zip_end
 *fill*         0x008b6148       0x18 
 .rodata        0x008b6160     0x5f48 pokemonranger.zip.o
                0x008b6160                pokemonranger_zip
                0x008bc0a4                pokemonranger_zip_end
                0x008bc0a4                pokemonranger_zip_size
 *fill*         0x008bc0a8       0x18 
 .rodata        0x008bc0c0     0x5f3c sfcommand.zip.o
                0x008bc0c0                sfcommand_zip
                0x008c1ff8                sfcommand_zip_size
                0x008c1ff8                sfcommand_zip_end
 *fill*         0x008c1ffc        0x4 
 .rodata        0x008c2000     0x5f4b shadowsofalmia.zip.o
                0x008c2000                shadowsofalmia_zip
                0x008c7f47                shadowsofalmia_zip_end
                0x008c7f47                shadowsofalmia_zip_size
 *fill*         0x008c7f4b       0x15 
 .rodata        0x008c7f60     0x5f39 sm64ds.zip.o
                0x008c7f60                sm64ds_zip
                0x008cde95                sm64ds_zip_size
                0x008cde95                sm64ds_zip_end
 *fill*         0x008cde99        0x7 
 .rodata        0x008cdea0     0x5f3b wwtouched.zip.o
                0x008cdea0                wwtouched_zip
                0x008d3dd7                wwtouched_zip_end
                0x008d3dd7                wwtouched_zip_size
 *fill*         0x008d3ddb        0x5 
 .rodata        0x008d3de0     0x5f37 yoshids.zip.o
                0x008d3de0                yoshids_zip
                0x008d9d13                yoshids_zip_size
                0x008d9d13                yoshids_zip_end
 *fill*         0x008d9d17        0x9 
 .rodata        0x008d9d20     0x5f50 yoshitouchandgo.zip.o
                0x008d9d20                yoshitouchandgo_zip
                0x008dfc6c                yoshitouchandgo_zip_end
                0x008dfc6c                yoshitouchandgo_zip_size
 *fill*         0x008dfc70       0x10 
 .rodata        0x008dfc80     0x5f38 zeldaph.zip.o
                0x008dfc80                zeldaph_zip
                0x008e5bb4                zeldaph_zip_end
                0x008e5bb4                zeldaph_zip_size
 *fill*         0x008e5bb8        0x8 
 .rodata        0x008e5bc0     0x5f3d zeldast.zip.o
                0x008e5bc0                zeldast_zip
                0x008ebaf9                zeldast_zip_size
                0x008ebaf9                zeldast_zip_end
 *fill*         0x008ebafd        0x3 
 .rodata.IOSUHAX_Open.str1.4
                0x008ebb00        0xd e:/Apps/devkitPro/portlibs/ppc/lib\libiosuhax.a(iosuhax.o)
 *fill*         0x008ebb0d        0x3 
 .rodata        0x008ebb10      0x30c e:/Apps/devkitPro/libwiiu/examples/haxchi/installer/libxml2/lib\libxml2.a(parser.o)
 .rodata.cst4   0x008ebe1c       0x28 e:/Apps/devkitPro/libwiiu/examples/haxchi/installer/libxml2/lib\libxml2.a(parser.o)
 .rodata.str1.4
                0x008ebe44     0x20fa e:/Apps/devkitPro/libwiiu/examples/haxchi/installer/libxml2/lib\libxml2.a(parser.o)
                               0x2102 (size before relaxing)
 *fill*         0x008edf3e        0x2 
 .rodata        0x008edf40      0x14a e:/Apps/devkitPro/libwiiu/examples/haxchi/installer/libxml2/lib\libxml2.a(tree.o)
                0x008ee080                xmlStringTextNoenc
 *fill*         0x008ee08a        0x2 
 .rodata.str1.4
                0x008ee08c      0x378 e:/Apps/devkitPro/libwiiu/examples/haxchi/installer/libxml2/lib\libxml2.a(tree.o)
                                0x3d8 (size before relaxing)
 .rodata        0x008ee404       0xe4 e:/Apps/devkitPro/libwiiu/examples/haxchi/installer/libxml2/lib\libxml2.a(xmlIO.o)
 .rodata.str1.4
                0x008ee4e8      0x57e e:/Apps/devkitPro/libwiiu/examples/haxchi/installer/libxml2/lib\libxml2.a(xmlIO.o)
                                0x59e (size before relaxing)
 *fill*         0x008eea66        0x2 
 .rodata.str1.4
                0x008eea68      0x20e e:/Apps/devkitPro/libwiiu/examples/haxchi/installer/libxml2/lib\libxml2.a(xmlmemory.o)
 *fill*         0x008eec76        0x2 
 .rodata.str1.4
                0x008eec78      0x13a e:/Apps/devkitPro/libwiiu/examples/haxchi/installer/libxml2/lib\libxml2.a(uri.o)
                                0x15a (size before relaxing)
 *fill*         0x008eedb2        0x2 
 .rodata        0x008eedb4       0x2c e:/Apps/devkitPro/libwiiu/examples/haxchi/installer/libxml2/lib\libxml2.a(valid.o)
 .rodata.str1.4
                0x008eede0      0x44d e:/Apps/devkitPro/libwiiu/examples/haxchi/installer/libxml2/lib\libxml2.a(valid.o)
                                0x4c6 (size before relaxing)
 *fill*         0x008ef22d        0x3 
 .rodata.str1.4
                0x008ef230        0xb e:/Apps/devkitPro/libwiiu/examples/haxchi/installer/libxml2/lib\libxml2.a(globals.o)
 *fill*         0x008ef23b        0x1 
 .rodata        0x008ef23c      0x100 e:/Apps/devkitPro/libwiiu/examples/haxchi/installer/libxml2/lib\libxml2.a(xmlstring.o)
 .rodata.str1.4
                0x008ef33c       0x1b e:/Apps/devkitPro/libwiiu/examples/haxchi/installer/libxml2/lib\libxml2.a(xmlstring.o)
 *fill*         0x008ef357        0x1 
 .rodata.str1.4
                0x008ef358       0x8e e:/Apps/devkitPro/libwiiu/examples/haxchi/installer/libxml2/lib\libxml2.a(buf.o)
                                 0xc2 (size before relaxing)
 *fill*         0x008ef3e6        0x2 
 .rodata        0x008ef3e8       0x84 e:/Apps/devkitPro/libwiiu/examples/haxchi/installer/libxml2/lib\libxml2.a(dict.o)
 .rodata.str1.4
                0x008ef46c      0x40d e:/Apps/devkitPro/libwiiu/examples/haxchi/installer/libxml2/lib\libxml2.a(SAX2.o)
                                0x411 (size before relaxing)
 *fill*         0x008ef879        0x3 
 .rodata        0x008ef87c      0x66c e:/Apps/devkitPro/libwiiu/examples/haxchi/installer/libxml2/lib\libxml2.a(chvalid.o)
                0x008ef87c                xmlIsBaseCharGroup
                0x008ef88c                xmlIsCombiningGroup
                0x008ef89c                xmlIsDigitGroup
                0x008ef8ac                xmlIsExtenderGroup
                0x008ef8bc                xmlIsPubidChar_tab
                0x008ef9bc                xmlIsIdeographicGroup
                0x008efbb4                xmlIsCharGroup
 .rodata        0x008efee8       0x40 e:/Apps/devkitPro/libwiiu/examples/haxchi/installer/libxml2/lib\libxml2.a(xmlsave.o)
 .rodata.str1.4
                0x008eff28      0x2d4 e:/Apps/devkitPro/libwiiu/examples/haxchi/installer/libxml2/lib\libxml2.a(xmlsave.o)
                                0x354 (size before relaxing)
 .rodata        0x008f01fc       0x18 e:/Apps/devkitPro/libwiiu/examples/haxchi/installer/libxml2/lib\libxml2.a(entities.o)
 .rodata.str1.4
                0x008f0214      0x240 e:/Apps/devkitPro/libwiiu/examples/haxchi/installer/libxml2/lib\libxml2.a(entities.o)
                                0x28a (size before relaxing)
 .rodata        0x008f0454       0xac e:/Apps/devkitPro/libwiiu/examples/haxchi/installer/libxml2/lib\libxml2.a(encoding.o)
 .rodata.str1.4
                0x008f0500      0x332 e:/Apps/devkitPro/libwiiu/examples/haxchi/installer/libxml2/lib\libxml2.a(encoding.o)
                                0x366 (size before relaxing)
 *fill*         0x008f0832        0x2 
 .rodata        0x008f0834       0x7c e:/Apps/devkitPro/libwiiu/examples/haxchi/installer/libxml2/lib\libxml2.a(error.o)
 .rodata.str1.4
                0x008f08b0      0x1c2 e:/Apps/devkitPro/libwiiu/examples/haxchi/installer/libxml2/lib\libxml2.a(error.o)
                                0x222 (size before relaxing)
 *fill*         0x008f0a72        0x2 
 .rodata        0x008f0a74       0xc8 e:/Apps/devkitPro/libwiiu/examples/haxchi/installer/libxml2/lib\libxml2.a(parserInternals.o)
 .rodata.str1.4
                0x008f0b3c      0x487 e:/Apps/devkitPro/libwiiu/examples/haxchi/installer/libxml2/lib\libxml2.a(parserInternals.o)
                                0x543 (size before relaxing)
 *fill*         0x008f0fc3        0x1 
 .rodata.str1.4
                0x008f0fc4       0x72 e:/Apps/devkitPro/libwiiu/examples/haxchi/installer/libxml2/lib\libxml2.a(list.o)
 *fill*         0x008f1036        0x2 
 .rodata        0x008f1038       0x64 e:/apps/devkitpro/devkitppc/bin/../lib/gcc/powerpc-eabi/6.2.0/../../../../powerpc-eabi/lib\libsysbase.a(iosupport.o)
                0x008f1038                dotab_stdnull
 .rodata.str1.4
                0x008f109c        0x8 e:/apps/devkitpro/devkitppc/bin/../lib/gcc/powerpc-eabi/6.2.0/../../../../powerpc-eabi/lib\libsysbase.a(iosupport.o)
 .rodata._ctype_
                0x008f10a4      0x101 e:/apps/devkitpro/devkitppc/bin/../lib/gcc/powerpc-eabi/6.2.0/../../../../powerpc-eabi/lib\libc.a(lib_a-ctype_.o)
                0x008f10a4                _ctype_
 *fill*         0x008f11a5        0x3 
 .rodata.str1.4
                0x008f11a8        0x2 e:/apps/devkitpro/devkitppc/bin/../lib/gcc/powerpc-eabi/6.2.0/../../../../powerpc-eabi/lib\libc.a(lib_a-impure.o)
 *fill*         0x008f11aa        0x2 
 .rodata._svfprintf_r
                0x008f11ac      0x164 e:/apps/devkitpro/devkitppc/bin/../lib/gcc/powerpc-eabi/6.2.0/../../../../powerpc-eabi/lib\libc.a(lib_a-svfprintf.o)
 .rodata._svfprintf_r.cst4
                0x008f1310        0x4 e:/apps/devkitpro/devkitppc/bin/../lib/gcc/powerpc-eabi/6.2.0/../../../../powerpc-eabi/lib\libc.a(lib_a-svfprintf.o)
 .rodata._svfprintf_r.str1.4
                0x008f1314       0x42 e:/apps/devkitpro/devkitppc/bin/../lib/gcc/powerpc-eabi/6.2.0/../../../../powerpc-eabi/lib\libc.a(lib_a-svfprintf.o)
 *fill*         0x008f1356        0x2 
 .rodata.blanks.5096
                0x008f1358       0x10 e:/apps/devkitpro/devkitppc/bin/../lib/gcc/powerpc-eabi/6.2.0/../../../../powerpc-eabi/lib\libc.a(lib_a-svfprintf.o)
 .rodata.zeroes.5097
                0x008f1368       0x10 e:/apps/devkitpro/devkitppc/bin/../lib/gcc/powerpc-eabi/6.2.0/../../../../powerpc-eabi/lib\libc.a(lib_a-svfprintf.o)
 .rodata.__ssvfscanf_r
                0x008f1378      0x458 e:/apps/devkitpro/devkitppc/bin/../lib/gcc/powerpc-eabi/6.2.0/../../../../powerpc-eabi/lib\libc.a(lib_a-svfscanf.o)
 .rodata.__ssvfscanf_r.cst4
                0x008f17d0        0x4 e:/apps/devkitpro/devkitppc/bin/../lib/gcc/powerpc-eabi/6.2.0/../../../../powerpc-eabi/lib\libc.a(lib_a-svfscanf.o)
 .rodata.__ssvfscanf_r.str1.4
                0x008f17d4        0x5 e:/apps/devkitpro/devkitppc/bin/../lib/gcc/powerpc-eabi/6.2.0/../../../../powerpc-eabi/lib\libc.a(lib_a-svfscanf.o)
 *fill*         0x008f17d9        0x1 
 .rodata.basefix.5007
                0x008f17da       0x22 e:/apps/devkitpro/devkitppc/bin/../lib/gcc/powerpc-eabi/6.2.0/../../../../powerpc-eabi/lib\libc.a(lib_a-svfscanf.o)
 .rodata._vfprintf_r
                0x008f17fc      0x164 e:/apps/devkitpro/devkitppc/bin/../lib/gcc/powerpc-eabi/6.2.0/../../../../powerpc-eabi/lib\libc.a(lib_a-vfprintf.o)
 .rodata._vfprintf_r.cst4
                0x008f1960        0x4 e:/apps/devkitpro/devkitppc/bin/../lib/gcc/powerpc-eabi/6.2.0/../../../../powerpc-eabi/lib\libc.a(lib_a-vfprintf.o)
 .rodata._vfprintf_r.str1.4
                0x008f1960       0x42 e:/apps/devkitpro/devkitppc/bin/../lib/gcc/powerpc-eabi/6.2.0/../../../../powerpc-eabi/lib\libc.a(lib_a-vfprintf.o)
 .rodata.blanks.5111
                0x008f1960       0x10 e:/apps/devkitpro/devkitppc/bin/../lib/gcc/powerpc-eabi/6.2.0/../../../../powerpc-eabi/lib\libc.a(lib_a-vfprintf.o)
 .rodata.zeroes.5112
                0x008f1970       0x10 e:/apps/devkitpro/devkitppc/bin/../lib/gcc/powerpc-eabi/6.2.0/../../../../powerpc-eabi/lib\libc.a(lib_a-vfprintf.o)
 .rodata._dtoa_r.cst4
                0x008f1980       0x20 e:/apps/devkitpro/devkitppc/bin/../lib/gcc/powerpc-eabi/6.2.0/../../../../powerpc-eabi/lib\libc.a(lib_a-dtoa.o)
                                 0x24 (size before relaxing)
 .rodata._dtoa_r.cst8
                0x008f19a0       0x18 e:/apps/devkitpro/devkitppc/bin/../lib/gcc/powerpc-eabi/6.2.0/../../../../powerpc-eabi/lib\libc.a(lib_a-dtoa.o)
 .rodata._dtoa_r.str1.4
                0x008f19b8       0x10 e:/apps/devkitpro/devkitppc/bin/../lib/gcc/powerpc-eabi/6.2.0/../../../../powerpc-eabi/lib\libc.a(lib_a-dtoa.o)
                                 0x12 (size before relaxing)
 .rodata.__jp2uc
                0x008f19c8       0x20 e:/apps/devkitpro/devkitppc/bin/../lib/gcc/powerpc-eabi/6.2.0/../../../../powerpc-eabi/lib\libc.a(lib_a-jp2uc.o)
 .rodata._jp2uc.str1.4
                0x008f19e8       0x12 e:/apps/devkitpro/devkitppc/bin/../lib/gcc/powerpc-eabi/6.2.0/../../../../powerpc-eabi/lib\libc.a(lib_a-jp2uc.o)
 .rodata.a1     0x008f19fa       0xbc e:/apps/devkitpro/devkitppc/bin/../lib/gcc/powerpc-eabi/6.2.0/../../../../powerpc-eabi/lib\libc.a(lib_a-jp2uc.o)
 .rodata.a2     0x008f1ab6       0xbc e:/apps/devkitpro/devkitppc/bin/../lib/gcc/powerpc-eabi/6.2.0/../../../../powerpc-eabi/lib\libc.a(lib_a-jp2uc.o)
 *fill*         0x008f1b72        0x2 
 .rodata.a3     0x008f1b74       0x5b e:/apps/devkitpro/devkitppc/bin/../lib/gcc/powerpc-eabi/6.2.0/../../../../powerpc-eabi/lib\libc.a(lib_a-jp2uc.o)
 *fill*         0x008f1bcf        0x1 
 .rodata.a6     0x008f1bd0       0x70 e:/apps/devkitpro/devkitppc/bin/../lib/gcc/powerpc-eabi/6.2.0/../../../../powerpc-eabi/lib\libc.a(lib_a-jp2uc.o)
 .rodata.a7     0x008f1c40       0xa2 e:/apps/devkitpro/devkitppc/bin/../lib/gcc/powerpc-eabi/6.2.0/../../../../powerpc-eabi/lib\libc.a(lib_a-jp2uc.o)
 .rodata.a8     0x008f1ce2       0x40 e:/apps/devkitpro/devkitppc/bin/../lib/gcc/powerpc-eabi/6.2.0/../../../../powerpc-eabi/lib\libc.a(lib_a-jp2uc.o)
 .rodata.b02cf  0x008f1d22     0x172a e:/apps/devkitpro/devkitppc/bin/../lib/gcc/powerpc-eabi/6.2.0/../../../../powerpc-eabi/lib\libc.a(lib_a-jp2uc.o)
 .rodata.d02f4  0x008f344c     0x1a7c e:/apps/devkitpro/devkitppc/bin/../lib/gcc/powerpc-eabi/6.2.0/../../../../powerpc-eabi/lib\libc.a(lib_a-jp2uc.o)
 .rodata.str1.4
                0x008f4ec8       0x44 e:/apps/devkitpro/devkitppc/bin/../lib/gcc/powerpc-eabi/6.2.0/../../../../powerpc-eabi/lib\libc.a(lib_a-locale.o)
                                 0x49 (size before relaxing)
 .rodata._mbrtowc_r.str1.4
                0x008f4f0c        0x1 e:/apps/devkitpro/devkitppc/bin/../lib/gcc/powerpc-eabi/6.2.0/../../../../powerpc-eabi/lib\libc.a(lib_a-mbrtowc.o)
 *fill*         0x008f4f0c        0x4 
 .rodata.__mprec_bigtens
                0x008f4f10       0x28 e:/apps/devkitpro/devkitppc/bin/../lib/gcc/powerpc-eabi/6.2.0/../../../../powerpc-eabi/lib\libc.a(lib_a-mprec.o)
                0x008f4f10                __mprec_bigtens
 .rodata.__mprec_tens
                0x008f4f38       0xc8 e:/apps/devkitpro/devkitppc/bin/../lib/gcc/powerpc-eabi/6.2.0/../../../../powerpc-eabi/lib\libc.a(lib_a-mprec.o)
                0x008f4f38                __mprec_tens
 .rodata.p05.3525
                0x008f5000        0xc e:/apps/devkitpro/devkitppc/bin/../lib/gcc/powerpc-eabi/6.2.0/../../../../powerpc-eabi/lib\libc.a(lib_a-mprec.o)
 .rodata.nanf.cst4
                0x008f500c        0x4 e:/apps/devkitpro/devkitppc/bin/../lib/gcc/powerpc-eabi/6.2.0/../../../../powerpc-eabi/lib\libc.a(lib_a-sf_nan.o)
 .rodata._strtod_r
                0x008f5010       0xd4 e:/apps/devkitpro/devkitppc/bin/../lib/gcc/powerpc-eabi/6.2.0/../../../../powerpc-eabi/lib\libc.a(lib_a-strtod.o)
 .rodata._strtod_r.cst4
                0x008f50e4        0xc e:/apps/devkitpro/devkitppc/bin/../lib/gcc/powerpc-eabi/6.2.0/../../../../powerpc-eabi/lib\libc.a(lib_a-strtod.o)
                                 0x20 (size before relaxing)
 .rodata._strtod_r.cst8
                0x008f50f0       0x20 e:/apps/devkitpro/devkitppc/bin/../lib/gcc/powerpc-eabi/6.2.0/../../../../powerpc-eabi/lib\libc.a(lib_a-strtod.o)
 .rodata._strtod_r.str1.4
                0x008f5110        0xa e:/apps/devkitpro/devkitppc/bin/../lib/gcc/powerpc-eabi/6.2.0/../../../../powerpc-eabi/lib\libc.a(lib_a-strtod.o)
                                  0xf (size before relaxing)
 *fill*         0x008f511a        0x6 
 .rodata.tinytens
                0x008f5120       0x28 e:/apps/devkitpro/devkitppc/bin/../lib/gcc/powerpc-eabi/6.2.0/../../../../powerpc-eabi/lib\libc.a(lib_a-strtod.o)
 .rodata.str1.4
                0x008f5148       0x1c e:/apps/devkitpro/devkitppc/bin/../lib/gcc/powerpc-eabi/6.2.0/../../../../powerpc-eabi/lib\libc.a(lib_a-gdtoa-gethex.o)
                                 0x1b (size before relaxing)

.data           0x008f5168     0x2030
 *(.data*)
 .data.dev_uhs_0_handle
                0x008f5168        0x4 exploit.o
 .data.GameList
                0x008f516c     0x1398 main.o
                0x008f516c                GameList
 .data.mcp_hook_fd
                0x008f6504        0x4 main.o
 .data          0x008f6508      0x124 os_functions.o
                0x008f6508                OSDynLoad_Acquire
                0x008f650c                OSDynLoad_FindExport
                0x008f6510                coreinit_handle
                0x008f6514                OSFatal
                0x008f6518                OSGetSecurityLevel
                0x008f651c                OSForceFullRelaunch
                0x008f6520                OSGetTitleID
                0x008f6524                OSGetArgcArgv
                0x008f6528                OSSetExceptionCallback
                0x008f652c                DCFlushRange
                0x008f6530                DCStoreRange
                0x008f6534                ICInvalidateRange
                0x008f6538                OSEffectiveToPhysical
                0x008f653c                __os_snprintf
                0x008f6540                __gh_errno_ptr
                0x008f6544                __Exit
                0x008f6548                OSScreenInit
                0x008f654c                OSScreenGetBufferSizeEx
                0x008f6550                OSScreenSetBufferEx
                0x008f6554                OSScreenClearBufferEx
                0x008f6558                OSScreenFlipBuffersEx
                0x008f655c                OSScreenPutFontEx
                0x008f6560                OSScreenEnableEx
                0x008f6564                OSCreateThread
                0x008f6568                OSResumeThread
                0x008f656c                OSSuspendThread
                0x008f6570                OSIsThreadTerminated
                0x008f6574                OSIsThreadSuspended
                0x008f6578                OSJoinThread
                0x008f657c                OSSetThreadPriority
                0x008f6580                OSDetachThread
                0x008f6584                OSSleepTicks
                0x008f6588                OSGetTick
                0x008f658c                OSGetTime
                0x008f6590                OSTicksToCalendarTime
                0x008f6594                OSInitMutex
                0x008f6598                OSLockMutex
                0x008f659c                OSUnlockMutex
                0x008f65a0                OSTryLockMutex
                0x008f65a4                MCP_Open
                0x008f65a8                MCP_Close
                0x008f65ac                MCP_TitleCount
                0x008f65b0                MCP_TitleList
                0x008f65b4                MCP_GetOwnTitleInfo
                0x008f65b8                pMEMAllocFromDefaultHeapEx
                0x008f65bc                pMEMAllocFromDefaultHeap
                0x008f65c0                pMEMFreeToDefaultHeap
                0x008f65c4                MEMGetBaseHeapHandle
                0x008f65c8                MEMGetAllocatableSizeForFrmHeapEx
                0x008f65cc                MEMAllocFromFrmHeapEx
                0x008f65d0                MEMFreeToFrmHeap
                0x008f65d4                MEMAllocFromExpHeapEx
                0x008f65d8                MEMCreateExpHeapEx
                0x008f65dc                MEMDestroyExpHeap
                0x008f65e0                MEMFreeToExpHeap
                0x008f65e4                DCInvalidateRange
                0x008f65e8                IMEnableDim
                0x008f65ec                IMDisableDim
                0x008f65f0                IMIsDimEnabled
                0x008f65f4                IMEnableAPD
                0x008f65f8                IMDisableAPD
                0x008f65fc                IMIsAPDEnabled
                0x008f6600                IMIsAPDEnabledBySysSettings
                0x008f6604                IOS_Ioctl
                0x008f6608                IOS_IoctlAsync
                0x008f660c                IOS_Open
                0x008f6610                IOS_Close
                0x008f6614                LiWaitIopComplete
                0x008f6618                LiWaitIopCompleteWithInterrupts
                0x008f661c                addr_LiWaitOneChunk
                0x008f6620                addr_PrepareTitle_hook
                0x008f6624                addr_sgIsLoadingBuffer
                0x008f6628                addr_gDynloadInitialized
 .data          0x008f662c       0x1c sys_functions.o
                0x008f662c                sysapp_handle
                0x008f6630                _SYSLaunchTitleByPathFromLauncher
                0x008f6634                SYSRelaunchTitle
                0x008f6638                SYSLaunchMenu
                0x008f663c                SYSCheckTitleExists
                0x008f6640                SYSLaunchTitle
                0x008f6644                SYSLaunchSettings
 .data          0x008f6648       0x20 vpad_functions.o
                0x008f6648                vpad_handle
                0x008f664c                vpadbase_handle
                0x008f6650                VPADInit
                0x008f6654                VPADRead
                0x008f6658                VPADGetLcdMode
                0x008f665c                VPADSetLcdMode
                0x008f6660                VPADBASEGetMotorOnRemainingCount
                0x008f6664                VPADBASESetMotorOnRemainingCount
 .data.bucket_heap
                0x008f6668        0x4 memory.o
 .data.mem1_heap
                0x008f666c        0x4 memory.o
 .data.iosuhaxHandle
                0x008f6670        0x4 e:/Apps/devkitPro/portlibs/ppc/lib\libiosuhax.a(iosuhax.o)
 .data          0x008f6674        0x4 e:/Apps/devkitPro/libwiiu/examples/haxchi/installer/libxml2/lib\libxml2.a(xmlIO.o)
 .data          0x008f6678       0x2c e:/Apps/devkitPro/libwiiu/examples/haxchi/installer/libxml2/lib\libxml2.a(globals.o)
                0x008f6694                xmlDefaultSAXLocator
 .data          0x008f66a4      0x17c e:/Apps/devkitPro/libwiiu/examples/haxchi/installer/libxml2/lib\libxml2.a(entities.o)
 .data          0x008f6820        0x4 e:/Apps/devkitPro/libwiiu/examples/haxchi/installer/libxml2/lib\libxml2.a(encoding.o)
 .data          0x008f6824      0x400 e:/apps/devkitpro/devkitppc/bin/../lib/gcc/powerpc-eabi/6.2.0/../../../../powerpc-eabi/lib\libsysbase.a(chdir.o)
 .data          0x008f6c24       0x44 e:/apps/devkitpro/devkitppc/bin/../lib/gcc/powerpc-eabi/6.2.0/../../../../powerpc-eabi/lib\libsysbase.a(iosupport.o)
                0x008f6c28                devoptab_list
 .data.impure_data
                0x008f6c68      0x440 e:/apps/devkitpro/devkitppc/bin/../lib/gcc/powerpc-eabi/6.2.0/../../../../powerpc-eabi/lib\libc.a(lib_a-impure.o)
 .data.lc_ctype_charset
                0x008f70a8       0x20 e:/apps/devkitpro/devkitppc/bin/../lib/gcc/powerpc-eabi/6.2.0/../../../../powerpc-eabi/lib\libc.a(lib_a-locale.o)
 .data.lconv    0x008f70c8       0x38 e:/apps/devkitpro/devkitppc/bin/../lib/gcc/powerpc-eabi/6.2.0/../../../../powerpc-eabi/lib\libc.a(lib_a-locale.o)
 .data.fpi.3485
                0x008f7100       0x14 e:/apps/devkitpro/devkitppc/bin/../lib/gcc/powerpc-eabi/6.2.0/../../../../powerpc-eabi/lib\libc.a(lib_a-strtod.o)
 .data.fpinan.3521
                0x008f7114       0x14 e:/apps/devkitpro/devkitppc/bin/../lib/gcc/powerpc-eabi/6.2.0/../../../../powerpc-eabi/lib\libc.a(lib_a-strtod.o)
                0x008f7128                __sdata_start = .
 *(.sdata*)
 .sdata         0x008f7128        0x0 entry.o
                0x008ff128                _SDA_BASE_
 .sdata2        0x008f7128        0x0 entry.o
                0x008ff128                _SDA2_BASE_
 .sdata         0x008f7128        0x4 e:/Apps/devkitPro/libwiiu/examples/haxchi/installer/libxml2/lib\libxml2.a(parser.o)
                0x008f7128                xmlParserMaxDepth
 .sdata         0x008f712c        0xd e:/Apps/devkitPro/libwiiu/examples/haxchi/installer/libxml2/lib\libxml2.a(tree.o)
                0x008f712c                xmlStringComment
                0x008f7134                xmlStringText
 *fill*         0x008f7139        0x3 
 .sdata         0x008f713c       0x34 e:/Apps/devkitPro/libwiiu/examples/haxchi/installer/libxml2/lib\libxml2.a(globals.o)
                0x008f713c                xmlTreeIndentString
                0x008f7140                xmlIndentTreeOutput
                0x008f7144                xmlGenericError
                0x008f7148                xmlKeepBlanksDefaultValue
                0x008f714c                xmlGetWarningsDefaultValue
                0x008f7150                xmlDefaultBufferSize
                0x008f7154                xmlBufferAllocScheme
                0x008f7158                xmlParserVersion
                0x008f715c                xmlMemStrdup
                0x008f7160                xmlRealloc
                0x008f7164                xmlMallocAtomic
                0x008f7168                xmlMalloc
                0x008f716c                xmlFree
 .sdata         0x008f7170        0xa e:/apps/devkitpro/devkitppc/bin/../lib/gcc/powerpc-eabi/6.2.0/../../../../powerpc-eabi/lib\libsysbase.a(chdir.o)
                0x008f7170                DIRECTORY_PARENT
                0x008f7174                DIRECTORY_THIS
                0x008f7178                DIRECTORY_SEPARATOR
 *fill*         0x008f717a        0x2 
 .sdata.__ctype_ptr__
                0x008f717c        0x4 e:/apps/devkitpro/devkitppc/bin/../lib/gcc/powerpc-eabi/6.2.0/../../../../powerpc-eabi/lib\libc.a(lib_a-ctype_.o)
                0x008f717c                __ctype_ptr__
 .sdata         0x008f7180        0x8 e:/apps/devkitpro/devkitppc/bin/../lib/gcc/powerpc-eabi/6.2.0/../../../../powerpc-eabi/lib\libc.a(lib_a-impure.o)
                0x008f7180                _global_impure_ptr
                0x008f7184                _impure_ptr
 .sdata.__wctomb
                0x008f7188        0x4 e:/apps/devkitpro/devkitppc/bin/../lib/gcc/powerpc-eabi/6.2.0/../../../../powerpc-eabi/lib\libc.a(lib_a-wctomb_r.o)
                0x008f7188                __wctomb
 .sdata.environ
                0x008f718c        0x4 e:/apps/devkitpro/devkitppc/bin/../lib/gcc/powerpc-eabi/6.2.0/../../../../powerpc-eabi/lib\libc.a(lib_a-environ.o)
                0x008f718c                environ
 .sdata.__mb_cur_max
                0x008f7190        0x4 e:/apps/devkitpro/devkitppc/bin/../lib/gcc/powerpc-eabi/6.2.0/../../../../powerpc-eabi/lib\libc.a(lib_a-locale.o)
                0x008f7190                __mb_cur_max
 .sdata.__mbtowc
                0x008f7194        0x4 e:/apps/devkitpro/devkitppc/bin/../lib/gcc/powerpc-eabi/6.2.0/../../../../powerpc-eabi/lib\libc.a(lib_a-mbtowc_r.o)
                0x008f7194                __mbtowc
                0x008f7198                __sdata_end = .
                0x008f7198                __sdata2_start = .
 *(.sdata2*)
                0x008f7198                __sdata2_end = .

.bss            0x008f7198     0x1430
                0x008f7198                __bss_start = .
 *(.bss*)
 .bss           0x008f7198        0x4 e:/Apps/devkitPro/libwiiu/examples/haxchi/installer/libxml2/lib\libxml2.a(parser.o)
 .bss           0x008f719c        0x4 e:/Apps/devkitPro/libwiiu/examples/haxchi/installer/libxml2/lib\libxml2.a(tree.o)
 .bss           0x008f71a0      0x1f0 e:/Apps/devkitPro/libwiiu/examples/haxchi/installer/libxml2/lib\libxml2.a(xmlIO.o)
 .bss           0x008f7390       0x20 e:/Apps/devkitPro/libwiiu/examples/haxchi/installer/libxml2/lib\libxml2.a(xmlmemory.o)
 .bss           0x008f73b0       0x3c e:/Apps/devkitPro/libwiiu/examples/haxchi/installer/libxml2/lib\libxml2.a(globals.o)
 .bss           0x008f73ec        0xc e:/Apps/devkitPro/libwiiu/examples/haxchi/installer/libxml2/lib\libxml2.a(dict.o)
 .bss           0x008f73f8       0x20 e:/Apps/devkitPro/libwiiu/examples/haxchi/installer/libxml2/lib\libxml2.a(encoding.o)
 .bss           0x008f7418        0x4 e:/Apps/devkitPro/libwiiu/examples/haxchi/installer/libxml2/lib\libxml2.a(error.o)
 .bss.__sfp_lock
                0x008f741c        0x4 e:/apps/devkitpro/devkitppc/bin/../lib/gcc/powerpc-eabi/6.2.0/../../../../powerpc-eabi/lib\libc.a(lib_a-findfp.o)
 .bss.__sinit_lock
                0x008f7420        0x4 e:/apps/devkitpro/devkitppc/bin/../lib/gcc/powerpc-eabi/6.2.0/../../../../powerpc-eabi/lib\libc.a(lib_a-findfp.o)
 .bss.initial_env
                0x008f7424        0x4 e:/apps/devkitpro/devkitppc/bin/../lib/gcc/powerpc-eabi/6.2.0/../../../../powerpc-eabi/lib\libc.a(lib_a-environ.o)
 .bss.__env_lock_object
                0x008f7428        0x4 e:/apps/devkitpro/devkitppc/bin/../lib/gcc/powerpc-eabi/6.2.0/../../../../powerpc-eabi/lib\libc.a(lib_a-envlock.o)
 .bss           0x008f742c       0x24 e:/apps/devkitpro/devkitppc/bin/../lib/gcc/powerpc-eabi/6.2.0/../../../../powerpc-eabi/lib\libsysbase.a(syscall_support.o)
                0x008f742c                __syscalls
 .bss           0x008f7450     0x1004 e:/apps/devkitpro/devkitppc/bin/../lib/gcc/powerpc-eabi/6.2.0/../../../../powerpc-eabi/lib\libsysbase.a(handle_manager.o)
 *(.sbss*)
 .sbss          0x008f8454        0x4 e:/Apps/devkitPro/libwiiu/examples/haxchi/installer/libxml2/lib\libxml2.a(tree.o)
                0x008f8454                __xmlRegisterCallbacks
 .sbss          0x008f8458       0x3c e:/Apps/devkitPro/libwiiu/examples/haxchi/installer/libxml2/lib\libxml2.a(globals.o)
                0x008f8458                xmlSaveNoEmptyTags
                0x008f845c                xmlStructuredErrorContext
                0x008f8460                xmlGenericErrorContext
                0x008f8464                xmlStructuredError
                0x008f8468                xmlOutputBufferCreateFilenameValue
                0x008f846c                xmlParserInputBufferCreateFilenameValue
                0x008f8470                xmlDeregisterNodeDefaultValue
                0x008f8474                xmlRegisterNodeDefaultValue
                0x008f8478                xmlSubstituteEntitiesDefaultValue
                0x008f847c                xmlLineNumbersDefaultValue
                0x008f8480                xmlPedanticParserDefaultValue
                0x008f8484                xmlLoadExtDtdDefaultValue
                0x008f8488                xmlDoValidityCheckingDefaultValue
                0x008f848c                xmlParserDebugEntities
                0x008f8490                oldXMLWDcompatibility
 *(COMMON)
 COMMON         0x008f8494       0x34 e:/Apps/devkitPro/libwiiu/examples/haxchi/installer/libxml2/lib\libxml2.a(globals.o)
                0x008f8494                xmlLastError
 COMMON         0x008f84c8      0x100 e:/apps/devkitpro/devkitppc/bin/../lib/gcc/powerpc-eabi/6.2.0/../../../../powerpc-eabi/lib\libc.a(lib_a-gdtoa-gethex.o)
                0x008f84c8                __hexdig
                0x008f85c8                __bss_end = .
                0x008f85c8                __CODE_END = .

/DISCARD/
 *(*)
OUTPUT(../cbhc_dbg.elf elf32-powerpc)
